(dp1
(I74
I106
tp2
(lp3
(I74
I107
tp4
a(I74
I105
tp5
as(I57
I50
tp6
(lp7
(I56
I50
tp8
a(I58
I50
tp9
as(I150
I79
tp10
(lp11
(I150
I80
tp12
a(I150
I78
tp13
as(I116
I158
tp14
(lp15
(I115
I158
tp16
a(I117
I158
tp17
as(I154
I2
tp18
(lp19
(I153
I2
tp20
a(I155
I2
tp21
as(I65
I50
tp22
(lp23
(I64
I50
tp24
a(I66
I50
tp25
as(I145
I122
tp26
(lp27
(I144
I122
tp28
a(I146
I122
tp29
as(I110
I41
tp30
(lp31
(I110
I42
tp32
a(I110
I40
tp33
as(I58
I19
tp34
(lp35
(I58
I20
tp36
a(I58
I18
tp37
as(I150
I62
tp38
(lp39
(I150
I63
tp40
a(I150
I61
tp41
as(I26
I120
tp42
(lp43
(I26
I121
tp44
a(I26
I119
tp45
as(I27
I122
tp46
(lp47
(I26
I122
tp48
a(I28
I122
tp49
as(I52
I98
tp50
(lp51
(I51
I98
tp52
a(I53
I98
tp53
as(I58
I130
tp54
(lp55
(I58
I131
tp56
a(I58
I129
tp57
as(I41
I74
tp58
(lp59
(I40
I74
tp60
a(I42
I74
tp61
as(I129
I26
tp62
(lp63
(I128
I26
tp64
a(I130
I26
tp65
as(I66
I66
tp66
(lp67
(I66
I67
tp68
a(I66
I65
tp69
as(I74
I2
tp70
(lp71
(I73
I2
tp72
a(I75
I2
tp73
as(I37
I158
tp74
(lp75
(I36
I158
tp76
a(I38
I158
tp77
as(I110
I65
tp78
(lp79
(I110
I66
tp80
a(I110
I64
tp81
as(I95
I98
tp82
(lp83
(I94
I98
tp84
a(I96
I98
tp85
as(I150
I70
tp86
(lp87
(I150
I71
tp88
a(I150
I69
tp89
as(I118
I129
tp90
(lp91
(I118
I130
tp92
a(I118
I128
tp93
as(I69
I158
tp94
(lp95
(I68
I158
tp96
a(I70
I158
tp97
as(I110
I48
tp98
(lp99
(I110
I49
tp100
a(I110
I47
tp101
as(I58
I26
tp102
(lp103
(I57
I26
tp104
a(I59
I26
tp105
a(I58
I25
tp106
as(I150
I49
tp107
(lp108
(I150
I50
tp109
a(I150
I48
tp110
as(I26
I67
tp111
(lp112
(I26
I68
tp113
a(I26
I66
tp114
as(I66
I42
tp115
(lp116
(I66
I43
tp117
a(I66
I41
tp118
as(I158
I17
tp119
(lp120
(I158
I18
tp121
a(I158
I16
tp122
as(I134
I46
tp123
(lp124
(I134
I47
tp125
a(I134
I45
tp126
as(I66
I93
tp127
(lp128
(I66
I94
tp129
a(I66
I92
tp130
as(I33
I74
tp131
(lp132
(I32
I74
tp133
a(I34
I74
tp134
as(I110
I72
tp135
(lp136
(I110
I73
tp137
a(I110
I71
tp138
as(I150
I89
tp139
(lp140
(I150
I90
tp141
a(I150
I88
tp142
as(I117
I26
tp143
(lp144
(I116
I26
tp145
a(I118
I26
tp146
as(I110
I59
tp147
(lp148
(I110
I60
tp149
a(I110
I58
tp150
as(I158
I141
tp151
(lp152
(I158
I142
tp153
a(I158
I140
tp154
as(I26
I74
tp155
(lp156
(I27
I74
tp157
a(I26
I75
tp158
a(I26
I73
tp159
as(I118
I11
tp160
(lp161
(I118
I12
tp162
a(I118
I10
tp163
as(I66
I37
tp164
(lp165
(I66
I38
tp166
a(I66
I36
tp167
as(I158
I24
tp168
(lp169
(I158
I25
tp170
a(I158
I23
tp171
as(I34
I26
tp172
(lp173
(I33
I26
tp174
a(I35
I26
tp175
as(I42
I74
tp176
(lp177
(I41
I74
tp178
a(I43
I74
tp179
as(I134
I33
tp180
(lp181
(I134
I34
tp182
a(I134
I32
tp183
as(I66
I84
tp184
(lp185
(I66
I85
tp186
a(I66
I83
tp187
as(I136
I26
tp188
(lp189
(I135
I26
tp190
a(I137
I26
tp191
as(I18
I98
tp192
(lp193
(I19
I98
tp194
as(I110
I83
tp195
(lp196
(I110
I84
tp197
a(I110
I82
tp198
as(I150
I80
tp199
(lp200
(I150
I81
tp201
a(I150
I79
tp202
as(I26
I34
tp203
(lp204
(I26
I35
tp205
a(I26
I33
tp206
as(I154
I158
tp207
(lp208
(I153
I158
tp209
a(I155
I158
tp210
as(I93
I26
tp211
(lp212
(I92
I26
tp213
a(I94
I26
tp214
as(I26
I85
tp215
(lp216
(I26
I86
tp217
a(I26
I84
tp218
as(I118
I2
tp219
(lp220
(I117
I2
tp221
a(I118
I3
tp222
as(I66
I60
tp223
(lp224
(I66
I61
tp225
a(I66
I59
tp226
as(I158
I3
tp227
(lp228
(I158
I4
tp229
a(I158
I2
tp230
as(I134
I24
tp231
(lp232
(I134
I25
tp233
a(I134
I23
tp234
as(I150
I114
tp235
(lp236
(I150
I115
tp237
a(I150
I113
tp238
as(I158
I146
tp239
(lp240
(I158
I147
tp241
a(I158
I145
tp242
as(I141
I74
tp243
(lp244
(I140
I74
tp245
a(I142
I74
tp246
as(I110
I80
tp247
(lp248
(I110
I81
tp249
a(I110
I79
tp250
as(I85
I98
tp251
(lp252
(I84
I98
tp253
a(I86
I98
tp254
as(I110
I90
tp255
(lp256
(I110
I91
tp257
a(I110
I89
tp258
as(I76
I158
tp259
(lp260
(I75
I158
tp261
a(I77
I158
tp262
as(I150
I107
tp263
(lp264
(I150
I108
tp265
a(I150
I106
tp266
as(I26
I45
tp267
(lp268
(I26
I46
tp269
a(I26
I44
tp270
as(I61
I74
tp271
(lp272
(I60
I74
tp273
a(I62
I74
tp274
as(I26
I92
tp275
(lp276
(I26
I93
tp277
a(I26
I91
tp278
as(I118
I5
tp279
(lp280
(I118
I6
tp281
a(I118
I4
tp282
as(I66
I55
tp283
(lp284
(I66
I56
tp285
a(I66
I54
tp286
as(I123
I74
tp287
(lp288
(I122
I74
tp289
a(I124
I74
tp290
as(I86
I50
tp291
(lp292
(I85
I50
tp293
a(I87
I50
tp294
as(I69
I26
tp295
(lp296
(I68
I26
tp297
a(I70
I26
tp298
as(I60
I134
tp299
(lp300
(I59
I134
tp301
a(I61
I134
tp302
as(I134
I19
tp303
(lp304
(I134
I20
tp305
a(I134
I18
tp306
as(I158
I149
tp307
(lp308
(I158
I150
tp309
a(I158
I148
tp310
as(I116
I74
tp311
(lp312
(I115
I74
tp313
a(I117
I74
tp314
as(I99
I50
tp315
(lp316
(I98
I50
tp317
a(I100
I50
tp318
as(I124
I26
tp319
(lp320
(I123
I26
tp321
a(I125
I26
tp322
as(I107
I50
tp323
(lp324
(I106
I50
tp325
a(I108
I50
tp326
as(I110
I93
tp327
(lp328
(I110
I94
tp329
a(I110
I92
tp330
as(I150
I98
tp331
(lp332
(I151
I98
tp333
a(I150
I99
tp334
a(I150
I97
tp335
as(I26
I52
tp336
(lp337
(I26
I53
tp338
a(I26
I51
tp339
as(I156
I26
tp340
(lp341
(I155
I26
tp342
a(I157
I26
tp343
as(I134
I123
tp344
(lp345
(I134
I124
tp346
a(I134
I122
tp347
as(I155
I2
tp348
(lp349
(I154
I2
tp350
a(I156
I2
tp351
as(I158
I13
tp352
(lp353
(I158
I14
tp354
a(I158
I12
tp355
as(I108
I98
tp356
(lp357
(I107
I98
tp358
a(I109
I98
tp359
as(I42
I39
tp360
(lp361
(I42
I40
tp362
a(I42
I38
tp363
as(I134
I10
tp364
(lp365
(I134
I11
tp366
a(I134
I9
tp367
as(I45
I26
tp368
(lp369
(I44
I26
tp370
a(I46
I26
tp371
as(I158
I156
tp372
(lp373
(I158
I157
tp374
a(I158
I155
tp375
as(I142
I122
tp376
(lp377
(I141
I122
tp378
a(I143
I122
tp379
as(I84
I122
tp380
(lp381
(I83
I122
tp382
a(I85
I122
tp383
as(I75
I2
tp384
(lp385
(I74
I2
tp386
a(I76
I2
tp387
as(I150
I101
tp388
(lp389
(I150
I102
tp390
a(I150
I100
tp391
as(I26
I63
tp392
(lp393
(I26
I64
tp394
a(I26
I62
tp395
as(I100
I26
tp396
(lp397
(I99
I26
tp398
a(I101
I26
tp399
as(I29
I2
tp400
(lp401
(I28
I2
tp402
a(I30
I2
tp403
as(I97
I98
tp404
(lp405
(I96
I98
tp406
a(I98
I98
tp407
as(I134
I114
tp408
(lp409
(I134
I115
tp410
a(I134
I113
tp411
as(I118
I23
tp412
(lp413
(I118
I24
tp414
a(I118
I22
tp415
as(I74
I149
tp416
(lp417
(I74
I150
tp418
a(I74
I148
tp419
as(I113
I98
tp420
(lp421
(I112
I98
tp422
a(I114
I98
tp423
as(I42
I46
tp424
(lp425
(I42
I47
tp426
a(I42
I45
tp427
as(I134
I13
tp428
(lp429
(I134
I14
tp430
a(I134
I12
tp431
as(I150
I158
tp432
(lp433
(I149
I158
tp434
a(I151
I158
tp435
as(I158
I135
tp436
(lp437
(I158
I136
tp438
a(I158
I134
tp439
as(I81
I50
tp440
(lp441
(I80
I50
tp442
a(I82
I50
tp443
as(I134
I156
tp444
(lp445
(I134
I157
tp446
a(I134
I155
tp447
as(I89
I122
tp448
(lp449
(I88
I122
tp450
a(I90
I122
tp451
as(I91
I2
tp452
(lp453
(I90
I2
tp454
a(I92
I2
tp455
as(I140
I2
tp456
(lp457
(I139
I2
tp458
a(I141
I2
tp459
as(I51
I50
tp460
(lp461
(I50
I50
tp462
a(I52
I50
tp463
as(I76
I26
tp464
(lp465
(I75
I26
tp466
a(I77
I26
tp467
as(I134
I117
tp468
(lp469
(I134
I118
tp470
a(I134
I116
tp471
as(I118
I110
tp472
(lp473
(I118
I111
tp474
a(I118
I109
tp475
as(I158
I127
tp476
(lp477
(I158
I128
tp478
a(I158
I126
tp479
as(I42
I41
tp480
(lp481
(I42
I42
tp482
a(I42
I40
tp483
as(I134
I4
tp484
(lp485
(I134
I5
tp486
a(I134
I3
tp487
as(I158
I142
tp488
(lp489
(I158
I143
tp490
a(I158
I141
tp491
as(I144
I158
tp492
(lp493
(I143
I158
tp494
a(I145
I158
tp495
as(I60
I2
tp496
(lp497
(I59
I2
tp498
a(I61
I2
tp499
as(I26
I158
tp500
(lp501
(I25
I158
tp502
a(I27
I158
tp503
as(I134
I151
tp504
(lp505
(I134
I152
tp506
a(I134
I150
tp507
as(I92
I158
tp508
(lp509
(I91
I158
tp510
a(I93
I158
tp511
as(I150
I119
tp512
(lp513
(I150
I120
tp514
a(I150
I118
tp515
as(I154
I122
tp516
(lp517
(I153
I122
tp518
a(I155
I122
tp519
as(I137
I2
tp520
(lp521
(I136
I2
tp522
a(I138
I2
tp523
as(I130
I50
tp524
(lp525
(I129
I50
tp526
a(I131
I50
tp527
as(I53
I158
tp528
(lp529
(I52
I158
tp530
a(I54
I158
tp531
as(I36
I122
tp532
(lp533
(I35
I122
tp534
a(I37
I122
tp535
as(I98
I98
tp536
(lp537
(I97
I98
tp538
a(I99
I98
tp539
as(I134
I108
tp540
(lp541
(I134
I109
tp542
a(I134
I107
tp543
as(I66
I27
tp544
(lp545
(I66
I28
tp546
a(I66
I26
tp547
as(I18
I150
tp548
(lp549
(I18
I151
tp550
a(I18
I149
tp551
as(I42
I16
tp552
(lp553
(I42
I17
tp554
a(I42
I15
tp555
as(I102
I126
tp556
(lp557
(I102
I127
tp558
a(I102
I125
tp559
as(I85
I158
tp560
(lp561
(I84
I158
tp562
a(I86
I158
tp563
as(I134
I142
tp564
(lp565
(I134
I143
tp566
a(I134
I141
tp567
as(I90
I122
tp568
(lp569
(I89
I122
tp570
a(I91
I122
tp571
as(I58
I99
tp572
(lp573
(I58
I100
tp574
a(I58
I98
tp575
as(I74
I98
tp576
(lp577
(I73
I98
tp578
a(I75
I98
tp579
a(I74
I99
tp580
as(I112
I50
tp581
(lp582
(I111
I50
tp583
a(I113
I50
tp584
as(I41
I122
tp585
(lp586
(I40
I122
tp587
a(I42
I122
tp588
as(I134
I103
tp589
(lp590
(I134
I104
tp591
a(I134
I102
tp592
as(I118
I120
tp593
(lp594
(I118
I121
tp595
a(I118
I119
tp596
as(I29
I158
tp597
(lp598
(I28
I158
tp599
a(I30
I158
tp600
as(I18
I145
tp601
(lp602
(I18
I146
tp603
a(I18
I144
tp604
as(I42
I27
tp605
(lp606
(I42
I28
tp607
a(I42
I26
tp608
as(I102
I113
tp609
(lp610
(I102
I114
tp611
a(I102
I112
tp612
as(I87
I50
tp613
(lp614
(I86
I50
tp615
a(I88
I50
tp616
as(I110
I91
tp617
(lp618
(I110
I92
tp619
a(I110
I90
tp620
as(I102
I148
tp621
(lp622
(I102
I149
tp623
a(I102
I147
tp624
as(I134
I129
tp625
(lp626
(I134
I130
tp627
a(I134
I128
tp628
as(I58
I106
tp629
(lp630
(I58
I107
tp631
a(I58
I105
tp632
as(I130
I158
tp633
(lp634
(I129
I158
tp635
a(I131
I158
tp636
as(I42
I115
tp637
(lp638
(I42
I116
tp639
a(I42
I114
tp640
as(I152
I26
tp641
(lp642
(I151
I26
tp643
a(I153
I26
tp644
as(I42
I44
tp645
(lp646
(I42
I45
tp647
a(I42
I43
tp648
as(I118
I115
tp649
(lp650
(I118
I116
tp651
a(I118
I114
tp652
as(I102
I153
tp653
(lp654
(I102
I154
tp655
a(I102
I152
tp656
as(I88
I2
tp657
(lp658
(I87
I2
tp659
a(I89
I2
tp660
as(I18
I136
tp661
(lp662
(I18
I137
tp663
a(I18
I135
tp664
as(I42
I2
tp665
(lp666
(I41
I2
tp667
a(I42
I3
tp668
as(I98
I158
tp669
(lp670
(I97
I158
tp671
a(I99
I158
tp672
as(I102
I104
tp673
(lp674
(I102
I105
tp675
a(I102
I103
tp676
as(I126
I98
tp677
(lp678
(I125
I98
tp679
a(I127
I98
tp680
as(I42
I149
tp681
(lp682
(I42
I150
tp683
a(I42
I148
tp684
as(I58
I117
tp685
(lp686
(I58
I118
tp687
a(I58
I116
tp688
as(I79
I98
tp689
(lp690
(I78
I98
tp691
a(I80
I98
tp692
as(I26
I26
tp693
(lp694
(I25
I26
tp695
a(I27
I26
tp696
a(I26
I27
tp697
as(I42
I122
tp698
(lp699
(I41
I122
tp700
a(I42
I123
tp701
a(I42
I121
tp702
as(I118
I74
tp703
(lp704
(I117
I74
tp705
a(I119
I74
tp706
as(I101
I2
tp707
(lp708
(I100
I2
tp709
a(I102
I2
tp710
as(I102
I144
tp711
(lp712
(I102
I145
tp713
a(I102
I143
tp714
as(I126
I26
tp715
(lp716
(I125
I26
tp717
a(I127
I26
tp718
as(I18
I131
tp719
(lp720
(I18
I132
tp721
a(I18
I130
tp722
as(I56
I50
tp723
(lp724
(I55
I50
tp725
a(I57
I50
tp726
as(I42
I13
tp727
(lp728
(I42
I14
tp729
a(I42
I12
tp730
as(I136
I74
tp731
(lp732
(I135
I74
tp733
a(I137
I74
tp734
as(I102
I99
tp735
(lp736
(I102
I100
tp737
a(I102
I98
tp738
as(I18
I18
tp739
(lp740
(I18
I19
tp741
a(I18
I17
tp742
as(I74
I119
tp743
(lp744
(I74
I120
tp745
a(I74
I118
tp746
as(I42
I156
tp747
(lp748
(I42
I157
tp749
a(I42
I155
tp750
as(I85
I26
tp751
(lp752
(I84
I26
tp753
a(I86
I26
tp754
as(I58
I124
tp755
(lp756
(I58
I125
tp757
a(I58
I123
tp758
as(I84
I158
tp759
(lp760
(I83
I158
tp761
a(I85
I158
tp762
as(I26
I101
tp763
(lp764
(I26
I102
tp765
a(I26
I100
tp766
as(I56
I74
tp767
(lp768
(I55
I74
tp769
a(I57
I74
tp770
as(I42
I101
tp771
(lp772
(I42
I102
tp773
a(I42
I100
tp774
as(I133
I74
tp775
(lp776
(I132
I74
tp777
a(I134
I74
tp778
as(I42
I152
tp779
(lp780
(I42
I153
tp781
a(I42
I151
tp782
as(I102
I139
tp783
(lp784
(I102
I140
tp785
a(I102
I138
tp786
as(I86
I122
tp787
(lp788
(I85
I122
tp789
a(I87
I122
tp790
as(I74
I156
tp791
(lp792
(I74
I157
tp793
a(I74
I155
tp794
as(I114
I134
tp795
(lp796
(I113
I134
tp797
a(I115
I134
tp798
as(I102
I26
tp799
(lp800
(I101
I26
tp801
a(I103
I26
tp802
as(I68
I158
tp803
(lp804
(I67
I158
tp805
a(I69
I158
tp806
as(I18
I13
tp807
(lp808
(I18
I14
tp809
a(I18
I12
tp810
as(I74
I126
tp811
(lp812
(I74
I127
tp813
a(I74
I125
tp814
as(I42
I135
tp815
(lp816
(I42
I136
tp817
a(I42
I134
tp818
as(I53
I74
tp819
(lp820
(I52
I74
tp821
a(I54
I74
tp822
as(I32
I158
tp823
(lp824
(I31
I158
tp825
a(I33
I158
tp826
as(I58
I7
tp827
(lp828
(I58
I8
tp829
a(I58
I6
tp830
as(I115
I74
tp831
(lp832
(I114
I74
tp833
a(I116
I74
tp834
as(I150
I42
tp835
(lp836
(I150
I43
tp837
a(I150
I41
tp838
as(I61
I26
tp839
(lp840
(I60
I26
tp841
a(I62
I26
tp842
as(I26
I108
tp843
(lp844
(I26
I109
tp845
a(I26
I107
tp846
as(I145
I74
tp847
(lp848
(I144
I74
tp849
a(I146
I74
tp850
as(I86
I2
tp851
(lp852
(I85
I2
tp853
a(I87
I2
tp854
as(I147
I122
tp855
(lp856
(I146
I122
tp857
a(I148
I122
tp858
as(I42
I108
tp859
(lp860
(I42
I109
tp861
a(I42
I107
tp862
as(I102
I130
tp863
(lp864
(I102
I131
tp865
a(I102
I129
tp866
as(I91
I98
tp867
(lp868
(I90
I98
tp869
a(I92
I98
tp870
as(I116
I26
tp871
(lp872
(I115
I26
tp873
a(I117
I26
tp874
as(I45
I98
tp875
(lp876
(I44
I98
tp877
a(I46
I98
tp878
as(I107
I98
tp879
(lp880
(I106
I98
tp881
a(I108
I98
tp882
as(I91
I158
tp883
(lp884
(I90
I158
tp885
a(I92
I158
tp886
as(I18
I4
tp887
(lp888
(I18
I5
tp889
a(I18
I3
tp890
as(I74
I121
tp891
(lp892
(I74
I122
tp893
a(I74
I120
tp894
as(I42
I142
tp895
(lp896
(I42
I143
tp897
a(I42
I141
tp898
as(I150
I106
tp899
(lp900
(I150
I107
tp901
a(I150
I105
tp902
as(I44
I158
tp903
(lp904
(I43
I158
tp905
a(I45
I158
tp906
as(I110
I28
tp907
(lp908
(I110
I29
tp909
a(I110
I27
tp910
as(I58
I14
tp911
(lp912
(I58
I15
tp913
a(I58
I13
tp914
as(I21
I122
tp915
(lp916
(I20
I122
tp917
a(I22
I122
tp918
as(I150
I45
tp919
(lp920
(I150
I46
tp921
a(I150
I44
tp922
as(I156
I2
tp923
(lp924
(I155
I2
tp925
a(I157
I2
tp926
as(I26
I119
tp927
(lp928
(I26
I120
tp929
a(I26
I118
tp930
as(I83
I122
tp931
(lp932
(I82
I122
tp933
a(I84
I122
tp934
as(I71
I158
tp935
(lp936
(I70
I158
tp937
a(I72
I158
tp938
as(I37
I26
tp939
(lp940
(I36
I26
tp941
a(I38
I26
tp942
as(I102
I133
tp943
(lp944
(I102
I134
tp945
a(I102
I132
tp946
as(I156
I98
tp947
(lp948
(I155
I98
tp949
a(I157
I98
tp950
as(I139
I26
tp951
(lp952
(I138
I26
tp953
a(I140
I26
tp954
as(I18
I127
tp955
(lp956
(I18
I128
tp957
a(I18
I126
tp958
as(I92
I26
tp959
(lp960
(I91
I26
tp961
a(I93
I26
tp962
as(I38
I122
tp963
(lp964
(I37
I122
tp965
a(I39
I122
tp966
as(I42
I137
tp967
(lp968
(I42
I138
tp969
a(I42
I136
tp970
as(I110
I39
tp971
(lp972
(I110
I40
tp973
a(I110
I38
tp974
as(I58
I9
tp975
(lp976
(I58
I10
tp977
a(I58
I8
tp978
as(I97
I50
tp979
(lp980
(I96
I50
tp981
a(I98
I50
tp982
as(I150
I36
tp983
(lp984
(I150
I37
tp985
a(I150
I35
tp986
as(I148
I122
tp987
(lp988
(I147
I122
tp989
a(I149
I122
tp990
as(I66
I72
tp991
(lp992
(I66
I73
tp993
a(I66
I71
tp994
as(I92
I98
tp995
(lp996
(I91
I98
tp997
a(I93
I98
tp998
as(I146
I158
tp999
(lp1000
(I145
I158
tp1001
a(I147
I158
tp1002
as(I74
I107
tp1003
(lp1004
(I74
I108
tp1005
a(I74
I106
tp1006
as(I114
I2
tp1007
(lp1008
(I113
I2
tp1009
a(I115
I2
tp1010
as(I150
I76
tp1011
(lp1012
(I150
I77
tp1013
a(I150
I75
tp1014
as(I68
I26
tp1015
(lp1016
(I67
I26
tp1017
a(I69
I26
tp1018
as(I110
I46
tp1019
(lp1020
(I110
I47
tp1021
a(I110
I45
tp1022
as(I58
I16
tp1023
(lp1024
(I58
I17
tp1025
a(I58
I15
tp1026
as(I150
I63
tp1027
(lp1028
(I150
I64
tp1029
a(I150
I62
tp1030
as(I26
I121
tp1031
(lp1032
(I26
I122
tp1033
a(I26
I120
tp1034
as(I58
I131
tp1035
(lp1036
(I58
I132
tp1037
a(I58
I130
tp1038
as(I153
I122
tp1039
(lp1040
(I152
I122
tp1041
a(I154
I122
tp1042
as(I136
I158
tp1043
(lp1044
(I135
I158
tp1045
a(I137
I158
tp1046
as(I66
I67
tp1047
(lp1048
(I66
I68
tp1049
a(I66
I66
tp1050
as(I35
I122
tp1051
(lp1052
(I34
I122
tp1053
a(I36
I122
tp1054
as(I127
I26
tp1055
(lp1056
(I126
I26
tp1057
a(I128
I26
tp1058
as(I110
I70
tp1059
(lp1060
(I110
I71
tp1061
a(I110
I69
tp1062
as(I150
I71
tp1063
(lp1064
(I150
I72
tp1065
a(I150
I70
tp1066
as(I118
I134
tp1067
(lp1068
(I117
I134
tp1069
a(I118
I133
tp1070
as(I90
I50
tp1071
(lp1072
(I89
I50
tp1073
a(I91
I50
tp1074
as(I110
I49
tp1075
(lp1076
(I110
I50
tp1077
a(I110
I48
tp1078
as(I150
I54
tp1079
(lp1080
(I150
I55
tp1081
a(I150
I53
tp1082
as(I44
I26
tp1083
(lp1084
(I43
I26
tp1085
a(I45
I26
tp1086
as(I66
I43
tp1087
(lp1088
(I66
I44
tp1089
a(I66
I42
tp1090
as(I158
I22
tp1091
(lp1092
(I158
I23
tp1093
a(I158
I21
tp1094
as(I134
I47
tp1095
(lp1096
(I134
I48
tp1097
a(I134
I46
tp1098
as(I66
I90
tp1099
(lp1100
(I66
I91
tp1101
a(I66
I89
tp1102
as(I49
I50
tp1103
(lp1104
(I48
I50
tp1105
a(I50
I50
tp1106
as(I64
I98
tp1107
(lp1108
(I63
I98
tp1109
a(I65
I98
tp1110
as(I28
I2
tp1111
(lp1112
(I27
I2
tp1113
a(I29
I2
tp1114
as(I110
I73
tp1115
(lp1116
(I110
I74
tp1117
a(I110
I72
tp1118
as(I150
I94
tp1119
(lp1120
(I150
I95
tp1121
a(I150
I93
tp1122
as(I104
I98
tp1123
(lp1124
(I103
I98
tp1125
a(I105
I98
tp1126
as(I103
I26
tp1127
(lp1128
(I102
I26
tp1129
a(I104
I26
tp1130
as(I69
I134
tp1131
(lp1132
(I68
I134
tp1133
a(I70
I134
tp1134
as(I110
I56
tp1135
(lp1136
(I110
I57
tp1137
a(I110
I55
tp1138
as(I26
I75
tp1139
(lp1140
(I26
I76
tp1141
a(I26
I74
tp1142
as(I118
I8
tp1143
(lp1144
(I118
I9
tp1145
a(I118
I7
tp1146
as(I66
I34
tp1147
(lp1148
(I66
I35
tp1149
a(I66
I33
tp1150
as(I158
I25
tp1151
(lp1152
(I158
I26
tp1153
a(I158
I24
tp1154
as(I56
I158
tp1155
(lp1156
(I55
I158
tp1157
a(I57
I158
tp1158
as(I134
I38
tp1159
(lp1160
(I134
I39
tp1161
a(I134
I37
tp1162
as(I66
I85
tp1163
(lp1164
(I66
I86
tp1165
a(I66
I84
tp1166
as(I87
I2
tp1167
(lp1168
(I86
I2
tp1169
a(I88
I2
tp1170
as(I74
I135
tp1171
(lp1172
(I74
I136
tp1173
a(I74
I134
tp1174
as(I146
I122
tp1175
(lp1176
(I145
I122
tp1177
a(I147
I122
tp1178
as(I25
I2
tp1179
(lp1180
(I24
I2
tp1181
a(I26
I2
tp1182
as(I74
I132
tp1183
(lp1184
(I74
I133
tp1185
a(I74
I131
tp1186
as(I150
I81
tp1187
(lp1188
(I150
I82
tp1189
a(I150
I80
tp1190
as(I26
I35
tp1191
(lp1192
(I26
I36
tp1193
a(I26
I34
tp1194
as(I80
I98
tp1195
(lp1196
(I79
I98
tp1197
a(I81
I98
tp1198
as(I125
I98
tp1199
(lp1200
(I124
I98
tp1201
a(I126
I98
tp1202
as(I26
I82
tp1203
(lp1204
(I26
I83
tp1205
a(I26
I81
tp1206
as(I118
I3
tp1207
(lp1208
(I118
I4
tp1209
a(I118
I2
tp1210
as(I66
I61
tp1211
(lp1212
(I66
I62
tp1213
a(I66
I60
tp1214
as(I42
I50
tp1215
(lp1216
(I43
I50
tp1217
a(I42
I49
tp1218
as(I134
I25
tp1219
(lp1220
(I134
I26
tp1221
a(I134
I24
tp1222
as(I158
I147
tp1223
(lp1224
(I158
I148
tp1225
a(I158
I146
tp1226
as(I136
I2
tp1227
(lp1228
(I135
I2
tp1229
a(I137
I2
tp1230
as(I74
I143
tp1231
(lp1232
(I74
I144
tp1233
a(I74
I142
tp1234
as(I55
I50
tp1235
(lp1236
(I54
I50
tp1237
a(I56
I50
tp1238
as(I150
I104
tp1239
(lp1240
(I150
I105
tp1241
a(I150
I103
tp1242
as(I26
I42
tp1243
(lp1244
(I26
I43
tp1245
a(I26
I41
tp1246
as(I44
I50
tp1247
(lp1248
(I43
I50
tp1249
a(I45
I50
tp1250
as(I129
I158
tp1251
(lp1252
(I128
I158
tp1253
a(I130
I158
tp1254
as(I26
I93
tp1255
(lp1256
(I26
I94
tp1257
a(I26
I92
tp1258
as(I118
I26
tp1259
(lp1260
(I117
I26
tp1261
a(I119
I26
tp1262
a(I118
I25
tp1263
as(I66
I52
tp1264
(lp1265
(I66
I53
tp1266
a(I66
I51
tp1267
as(I158
I11
tp1268
(lp1269
(I158
I12
tp1270
a(I158
I10
tp1271
as(I134
I16
tp1272
(lp1273
(I134
I17
tp1274
a(I134
I15
tp1275
as(I158
I154
tp1276
(lp1277
(I158
I155
tp1278
a(I158
I153
tp1279
as(I111
I158
tp1280
(lp1281
(I110
I158
tp1282
a(I112
I158
tp1283
as(I149
I2
tp1284
(lp1285
(I148
I2
tp1286
a(I150
I2
tp1287
as(I23
I98
tp1288
(lp1289
(I22
I98
tp1290
a(I24
I98
tp1291
as(I110
I98
tp1292
(lp1293
(I109
I98
tp1294
a(I111
I98
tp1295
a(I110
I97
tp1296
as(I150
I99
tp1297
(lp1298
(I150
I100
tp1299
a(I150
I98
tp1300
as(I26
I53
tp1301
(lp1302
(I26
I54
tp1303
a(I26
I52
tp1304
as(I28
I158
tp1305
(lp1306
(I27
I158
tp1307
a(I29
I158
tp1308
as(I115
I2
tp1309
(lp1310
(I114
I2
tp1311
a(I116
I2
tp1312
as(I134
I98
tp1313
(lp1314
(I133
I98
tp1315
a(I134
I99
tp1316
as(I134
I120
tp1317
(lp1318
(I134
I121
tp1319
a(I134
I119
tp1320
as(I69
I2
tp1321
(lp1322
(I68
I2
tp1323
a(I70
I2
tp1324
as(I74
I148
tp1325
(lp1326
(I74
I149
tp1327
a(I74
I147
tp1328
as(I94
I26
tp1329
(lp1330
(I93
I26
tp1331
a(I95
I26
tp1332
as(I60
I158
tp1333
(lp1334
(I59
I158
tp1335
a(I61
I158
tp1336
as(I134
I11
tp1337
(lp1338
(I134
I12
tp1339
a(I134
I10
tp1340
as(I158
I157
tp1341
(lp1342
(I158
I158
tp1343
a(I158
I156
tp1344
as(I132
I158
tp1345
(lp1346
(I131
I158
tp1347
a(I133
I158
tp1348
as(I134
I154
tp1349
(lp1350
(I134
I155
tp1351
a(I134
I153
tp1352
as(I87
I158
tp1353
(lp1354
(I86
I158
tp1355
a(I88
I158
tp1356
as(I53
I26
tp1357
(lp1358
(I52
I26
tp1359
a(I54
I26
tp1360
as(I150
I122
tp1361
(lp1362
(I149
I122
tp1363
a(I151
I122
tp1364
a(I150
I121
tp1365
as(I26
I60
tp1366
(lp1367
(I26
I61
tp1368
a(I26
I59
tp1369
as(I147
I74
tp1370
(lp1371
(I146
I74
tp1372
a(I148
I74
tp1373
as(I134
I115
tp1374
(lp1375
(I134
I116
tp1376
a(I134
I114
tp1377
as(I118
I20
tp1378
(lp1379
(I118
I21
tp1380
a(I118
I19
tp1381
as(I155
I26
tp1382
(lp1383
(I154
I26
tp1384
a(I156
I26
tp1385
as(I91
I50
tp1386
(lp1387
(I90
I50
tp1388
a(I92
I50
tp1389
as(I42
I47
tp1390
(lp1391
(I42
I48
tp1392
a(I42
I46
tp1393
as(I134
I2
tp1394
(lp1395
(I135
I2
tp1396
a(I134
I3
tp1397
as(I158
I132
tp1398
(lp1399
(I158
I133
tp1400
a(I158
I131
tp1401
as(I70
I26
tp1402
(lp1403
(I69
I26
tp1404
a(I71
I26
tp1405
as(I134
I157
tp1406
(lp1407
(I134
I158
tp1408
a(I134
I156
tp1409
as(I109
I134
tp1410
(lp1411
(I108
I134
tp1412
a(I110
I134
tp1413
as(I100
I2
tp1414
(lp1415
(I99
I2
tp1416
a(I101
I2
tp1417
as(I155
I98
tp1418
(lp1419
(I154
I98
tp1420
a(I156
I98
tp1421
as(I29
I26
tp1422
(lp1423
(I28
I26
tp1424
a(I30
I26
tp1425
as(I37
I74
tp1426
(lp1427
(I36
I74
tp1428
a(I38
I74
tp1429
as(I97
I122
tp1430
(lp1431
(I96
I122
tp1432
a(I98
I122
tp1433
as(I134
I106
tp1434
(lp1435
(I134
I107
tp1436
a(I134
I105
tp1437
as(I118
I111
tp1438
(lp1439
(I118
I112
tp1440
a(I118
I110
tp1441
as(I80
I2
tp1442
(lp1443
(I79
I2
tp1444
a(I81
I2
tp1445
as(I158
I124
tp1446
(lp1447
(I158
I125
tp1448
a(I158
I123
tp1449
as(I18
I156
tp1450
(lp1451
(I18
I157
tp1452
a(I18
I155
tp1453
as(I113
I26
tp1454
(lp1455
(I112
I26
tp1456
a(I114
I26
tp1457
as(I131
I26
tp1458
(lp1459
(I130
I26
tp1460
a(I132
I26
tp1461
as(I42
I22
tp1462
(lp1463
(I42
I23
tp1464
a(I42
I21
tp1465
as(I134
I5
tp1466
(lp1467
(I134
I6
tp1468
a(I134
I4
tp1469
as(I156
I50
tp1470
(lp1471
(I155
I50
tp1472
a(I157
I50
tp1473
as(I158
I143
tp1474
(lp1475
(I158
I144
tp1476
a(I158
I142
tp1477
as(I134
I148
tp1478
(lp1479
(I134
I149
tp1480
a(I134
I147
tp1481
as(I114
I74
tp1482
(lp1483
(I113
I74
tp1484
a(I115
I74
tp1485
as(I97
I2
tp1486
(lp1487
(I96
I2
tp1488
a(I98
I2
tp1489
as(I150
I116
tp1490
(lp1491
(I150
I117
tp1492
a(I150
I115
tp1493
as(I43
I74
tp1494
(lp1495
(I42
I74
tp1496
a(I44
I74
tp1497
as(I83
I50
tp1498
(lp1499
(I82
I50
tp1500
a(I84
I50
tp1501
as(I148
I74
tp1502
(lp1503
(I147
I74
tp1504
a(I149
I74
tp1505
as(I22
I50
tp1506
(lp1507
(I21
I50
tp1508
a(I23
I50
tp1509
as(I134
I109
tp1510
(lp1511
(I134
I110
tp1512
a(I134
I108
tp1513
as(I118
I102
tp1514
(lp1515
(I118
I103
tp1516
a(I118
I101
tp1517
as(I18
I151
tp1518
(lp1519
(I18
I152
tp1520
a(I18
I150
tp1521
as(I42
I17
tp1522
(lp1523
(I42
I18
tp1524
a(I42
I16
tp1525
as(I153
I50
tp1526
(lp1527
(I152
I50
tp1528
a(I154
I50
tp1529
as(I102
I127
tp1530
(lp1531
(I102
I128
tp1532
a(I102
I126
tp1533
as(I74
I142
tp1534
(lp1535
(I74
I143
tp1536
a(I74
I141
tp1537
as(I60
I26
tp1538
(lp1539
(I59
I26
tp1540
a(I61
I26
tp1541
as(I43
I50
tp1542
(lp1543
(I42
I50
tp1544
a(I44
I50
tp1545
as(I134
I143
tp1546
(lp1547
(I134
I144
tp1548
a(I134
I142
tp1549
as(I126
I158
tp1550
(lp1551
(I125
I158
tp1552
a(I127
I158
tp1553
as(I128
I158
tp1554
(lp1555
(I127
I158
tp1556
a(I129
I158
tp1557
as(I98
I122
tp1558
(lp1559
(I97
I122
tp1560
a(I99
I122
tp1561
as(I134
I100
tp1562
(lp1563
(I134
I101
tp1564
a(I134
I99
tp1565
as(I118
I121
tp1566
(lp1567
(I118
I122
tp1568
a(I118
I120
tp1569
as(I18
I142
tp1570
(lp1571
(I18
I143
tp1572
a(I18
I141
tp1573
as(I111
I74
tp1574
(lp1575
(I110
I74
tp1576
a(I112
I74
tp1577
as(I42
I24
tp1578
(lp1579
(I42
I25
tp1580
a(I42
I23
tp1581
as(I102
I142
tp1582
(lp1583
(I102
I143
tp1584
a(I102
I141
tp1585
as(I119
I26
tp1586
(lp1587
(I118
I26
tp1588
a(I120
I26
tp1589
as(I102
I118
tp1590
(lp1591
(I102
I119
tp1592
a(I102
I117
tp1593
as(I127
I74
tp1594
(lp1595
(I126
I74
tp1596
a(I128
I74
tp1597
as(I82
I2
tp1598
(lp1599
(I81
I2
tp1600
a(I83
I2
tp1601
as(I28
I74
tp1602
(lp1603
(I27
I74
tp1604
a(I29
I74
tp1605
as(I70
I158
tp1606
(lp1607
(I69
I158
tp1608
a(I71
I158
tp1609
as(I36
I26
tp1610
(lp1611
(I35
I26
tp1612
a(I37
I26
tp1613
as(I58
I107
tp1614
(lp1615
(I58
I108
tp1616
a(I58
I106
tp1617
as(I44
I74
tp1618
(lp1619
(I43
I74
tp1620
a(I45
I74
tp1621
as(I42
I112
tp1622
(lp1623
(I42
I113
tp1624
a(I42
I111
tp1625
as(I118
I112
tp1626
(lp1627
(I118
I113
tp1628
a(I118
I111
tp1629
as(I119
I98
tp1630
(lp1631
(I118
I98
tp1632
a(I120
I98
tp1633
as(I102
I158
tp1634
(lp1635
(I101
I158
tp1636
a(I103
I158
tp1637
a(I102
I157
tp1638
as(I18
I137
tp1639
(lp1640
(I18
I138
tp1641
a(I18
I136
tp1642
as(I42
I3
tp1643
(lp1644
(I42
I4
tp1645
a(I42
I2
tp1646
as(I102
I105
tp1647
(lp1648
(I102
I106
tp1649
a(I102
I104
tp1650
as(I18
I24
tp1651
(lp1652
(I18
I25
tp1653
a(I18
I23
tp1654
as(I113
I158
tp1655
(lp1656
(I112
I158
tp1657
a(I114
I158
tp1658
as(I96
I50
tp1659
(lp1660
(I95
I50
tp1661
a(I97
I50
tp1662
as(I95
I26
tp1663
(lp1664
(I94
I26
tp1665
a(I96
I26
tp1666
as(I42
I146
tp1667
(lp1668
(I42
I147
tp1669
a(I42
I145
tp1670
as(I74
I137
tp1671
(lp1672
(I74
I138
tp1673
a(I74
I136
tp1674
as(I58
I114
tp1675
(lp1676
(I58
I115
tp1677
a(I58
I113
tp1678
as(I129
I50
tp1679
(lp1680
(I128
I50
tp1681
a(I130
I50
tp1682
as(I26
I27
tp1683
(lp1684
(I26
I28
tp1685
a(I26
I26
tp1686
as(I103
I158
tp1687
(lp1688
(I102
I158
tp1689
a(I104
I158
tp1690
as(I158
I10
tp1691
(lp1692
(I158
I11
tp1693
a(I158
I9
tp1694
as(I42
I123
tp1695
(lp1696
(I42
I124
tp1697
a(I42
I122
tp1698
as(I152
I98
tp1699
(lp1700
(I151
I98
tp1701
a(I153
I98
tp1702
as(I102
I145
tp1703
(lp1704
(I102
I146
tp1705
a(I102
I144
tp1706
as(I18
I128
tp1707
(lp1708
(I18
I129
tp1709
a(I18
I127
tp1710
as(I42
I10
tp1711
(lp1712
(I42
I11
tp1713
a(I42
I9
tp1714
as(I18
I19
tp1715
(lp1716
(I18
I20
tp1717
a(I18
I18
tp1718
as(I74
I116
tp1719
(lp1720
(I74
I117
tp1721
a(I74
I115
tp1722
as(I42
I157
tp1723
(lp1724
(I42
I158
tp1725
a(I42
I156
tp1726
as(I117
I50
tp1727
(lp1728
(I116
I50
tp1729
a(I118
I50
tp1730
as(I135
I2
tp1731
(lp1732
(I134
I2
tp1733
a(I136
I2
tp1734
as(I71
I26
tp1735
(lp1736
(I70
I26
tp1737
a(I72
I26
tp1738
as(I58
I125
tp1739
(lp1740
(I58
I126
tp1741
a(I58
I124
tp1742
as(I26
I98
tp1743
(lp1744
(I25
I98
tp1745
a(I26
I99
tp1746
a(I26
I97
tp1747
as(I88
I98
tp1748
(lp1749
(I87
I98
tp1750
a(I89
I98
tp1751
as(I42
I98
tp1752
(lp1753
(I43
I98
tp1754
a(I42
I99
tp1755
as(I102
I136
tp1756
(lp1757
(I102
I137
tp1758
a(I102
I135
tp1759
as(I139
I158
tp1760
(lp1761
(I138
I158
tp1762
a(I140
I158
tp1763
as(I21
I158
tp1764
(lp1765
(I20
I158
tp1766
a(I22
I158
tp1767
as(I18
I10
tp1768
(lp1769
(I18
I11
tp1770
a(I18
I9
tp1771
as(I74
I127
tp1772
(lp1773
(I74
I128
tp1774
a(I74
I126
tp1775
as(I42
I132
tp1776
(lp1777
(I42
I133
tp1778
a(I42
I131
tp1779
as(I110
I26
tp1780
(lp1781
(I109
I26
tp1782
a(I111
I26
tp1783
a(I110
I27
tp1784
as(I58
I4
tp1785
(lp1786
(I58
I5
tp1787
a(I58
I3
tp1788
as(I150
I43
tp1789
(lp1790
(I150
I44
tp1791
a(I150
I42
tp1792
as(I26
I109
tp1793
(lp1794
(I26
I110
tp1795
a(I26
I108
tp1796
as(I48
I50
tp1797
(lp1798
(I47
I50
tp1799
a(I49
I50
tp1800
as(I42
I109
tp1801
(lp1802
(I42
I110
tp1803
a(I42
I108
tp1804
as(I102
I131
tp1805
(lp1806
(I102
I132
tp1807
a(I102
I130
tp1808
as(I23
I50
tp1809
(lp1810
(I22
I50
tp1811
a(I24
I50
tp1812
as(I138
I158
tp1813
(lp1814
(I137
I158
tp1815
a(I139
I158
tp1816
as(I68
I134
tp1817
(lp1818
(I67
I134
tp1819
a(I69
I134
tp1820
as(I18
I5
tp1821
(lp1822
(I18
I6
tp1823
a(I18
I4
tp1824
as(I74
I102
tp1825
(lp1826
(I74
I103
tp1827
a(I74
I101
tp1828
as(I20
I158
tp1829
(lp1830
(I19
I158
tp1831
a(I21
I158
tp1832
as(I42
I143
tp1833
(lp1834
(I42
I144
tp1835
a(I42
I142
tp1836
as(I110
I29
tp1837
(lp1838
(I110
I30
tp1839
a(I110
I28
tp1840
as(I58
I15
tp1841
(lp1842
(I58
I16
tp1843
a(I58
I14
tp1844
as(I150
I34
tp1845
(lp1846
(I150
I35
tp1847
a(I150
I33
tp1848
as(I26
I116
tp1849
(lp1850
(I26
I117
tp1851
a(I26
I115
tp1852
as(I86
I26
tp1853
(lp1854
(I85
I26
tp1855
a(I87
I26
tp1856
as(I69
I50
tp1857
(lp1858
(I68
I50
tp1859
a(I70
I50
tp1860
as(I52
I158
tp1861
(lp1862
(I51
I158
tp1863
a(I53
I158
tp1864
as(I24
I2
tp1865
(lp1866
(I23
I2
tp1867
a(I25
I2
tp1868
as(I66
I78
tp1869
(lp1870
(I66
I79
tp1871
a(I66
I77
tp1872
as(I91
I122
tp1873
(lp1874
(I90
I122
tp1875
a(I92
I122
tp1876
as(I116
I98
tp1877
(lp1878
(I115
I98
tp1879
a(I117
I98
tp1880
as(I79
I158
tp1881
(lp1882
(I78
I158
tp1883
a(I80
I158
tp1884
as(I70
I98
tp1885
(lp1886
(I69
I98
tp1887
a(I71
I98
tp1888
as(I18
I124
tp1889
(lp1890
(I18
I125
tp1891
a(I18
I123
tp1892
as(I150
I74
tp1893
(lp1894
(I149
I74
tp1895
a(I150
I75
tp1896
a(I150
I73
tp1897
as(I110
I36
tp1898
(lp1899
(I110
I37
tp1900
a(I110
I35
tp1901
as(I147
I26
tp1902
(lp1903
(I146
I26
tp1904
a(I148
I26
tp1905
as(I58
I22
tp1906
(lp1907
(I58
I23
tp1908
a(I58
I21
tp1909
as(I150
I37
tp1910
(lp1911
(I150
I38
tp1912
a(I150
I36
tp1913
as(I83
I2
tp1914
(lp1915
(I82
I2
tp1916
a(I84
I2
tp1917
as(I37
I2
tp1918
(lp1919
(I36
I2
tp1920
a(I38
I2
tp1921
as(I62
I26
tp1922
(lp1923
(I61
I26
tp1924
a(I63
I26
tp1925
as(I66
I73
tp1926
(lp1927
(I66
I74
tp1928
a(I66
I72
tp1929
as(I121
I98
tp1930
(lp1931
(I120
I98
tp1932
a(I122
I98
tp1933
as(I156
I122
tp1934
(lp1935
(I155
I122
tp1936
a(I157
I122
tp1937
as(I74
I104
tp1938
(lp1939
(I74
I105
tp1940
a(I74
I103
tp1941
as(I21
I26
tp1942
(lp1943
(I20
I26
tp1944
a(I22
I26
tp1945
as(I150
I77
tp1946
(lp1947
(I150
I78
tp1948
a(I150
I76
tp1949
as(I84
I26
tp1950
(lp1951
(I83
I26
tp1952
a(I85
I26
tp1953
as(I110
I47
tp1954
(lp1955
(I110
I48
tp1956
a(I110
I46
tp1957
as(I58
I17
tp1958
(lp1959
(I58
I18
tp1960
a(I58
I16
tp1961
as(I150
I60
tp1962
(lp1963
(I150
I61
tp1964
a(I150
I59
tp1965
as(I26
I70
tp1966
(lp1967
(I26
I71
tp1968
a(I26
I69
tp1969
as(I122
I50
tp1970
(lp1971
(I121
I50
tp1972
a(I123
I50
tp1973
as(I105
I26
tp1974
(lp1975
(I104
I26
tp1976
a(I106
I26
tp1977
as(I113
I74
tp1978
(lp1979
(I112
I74
tp1980
a(I114
I74
tp1981
as(I58
I128
tp1982
(lp1983
(I58
I129
tp1984
a(I58
I127
tp1985
as(I66
I64
tp1986
(lp1987
(I66
I65
tp1988
a(I66
I63
tp1989
as(I119
I158
tp1990
(lp1991
(I118
I158
tp1992
a(I120
I158
tp1993
as(I92
I122
tp1994
(lp1995
(I91
I122
tp1996
a(I93
I122
tp1997
as(I38
I26
tp1998
(lp1999
(I37
I26
tp2000
a(I39
I26
tp2001
as(I110
I71
tp2002
(lp2003
(I110
I72
tp2004
a(I110
I70
tp2005
as(I19
I50
tp2006
(lp2007
(I18
I50
tp2008
a(I20
I50
tp2009
as(I150
I68
tp2010
(lp2011
(I150
I69
tp2012
a(I150
I67
tp2013
as(I18
I8
tp2014
(lp2015
(I18
I9
tp2016
a(I18
I7
tp2017
as(I68
I2
tp2018
(lp2019
(I67
I2
tp2020
a(I69
I2
tp2021
as(I110
I54
tp2022
(lp2023
(I110
I55
tp2024
a(I110
I53
tp2025
as(I58
I24
tp2026
(lp2027
(I58
I25
tp2028
a(I58
I23
tp2029
as(I22
I2
tp2030
(lp2031
(I21
I2
tp2032
a(I23
I2
tp2033
as(I150
I55
tp2034
(lp2035
(I150
I56
tp2036
a(I150
I54
tp2037
as(I26
I65
tp2038
(lp2039
(I26
I66
tp2040
a(I26
I64
tp2041
as(I66
I40
tp2042
(lp2043
(I66
I41
tp2044
a(I66
I39
tp2045
as(I158
I23
tp2046
(lp2047
(I158
I24
tp2048
a(I158
I22
tp2049
as(I145
I2
tp2050
(lp2051
(I144
I2
tp2052
a(I146
I2
tp2053
as(I19
I98
tp2054
(lp2055
(I18
I98
tp2056
a(I20
I98
tp2057
as(I81
I26
tp2058
(lp2059
(I80
I26
tp2060
a(I82
I26
tp2061
as(I134
I44
tp2062
(lp2063
(I134
I45
tp2064
a(I134
I43
tp2065
as(I63
I158
tp2066
(lp2067
(I62
I158
tp2068
a(I64
I158
tp2069
as(I66
I91
tp2070
(lp2071
(I66
I92
tp2072
a(I66
I90
tp2073
as(I86
I158
tp2074
(lp2075
(I85
I158
tp2076
a(I87
I158
tp2077
as(I52
I26
tp2078
(lp2079
(I51
I26
tp2080
a(I53
I26
tp2081
as(I110
I82
tp2082
(lp2083
(I110
I83
tp2084
a(I110
I81
tp2085
as(I110
I78
tp2086
(lp2087
(I110
I79
tp2088
a(I110
I77
tp2089
as(I150
I95
tp2090
(lp2091
(I150
I96
tp2092
a(I150
I94
tp2093
as(I118
I158
tp2094
(lp2095
(I117
I158
tp2096
a(I119
I158
tp2097
as(I65
I2
tp2098
(lp2099
(I64
I2
tp2100
a(I66
I2
tp2101
as(I110
I57
tp2102
(lp2103
(I110
I58
tp2104
a(I110
I56
tp2105
as(I26
I72
tp2106
(lp2107
(I26
I73
tp2108
a(I26
I71
tp2109
as(I27
I74
tp2110
(lp2111
(I26
I74
tp2112
a(I28
I74
tp2113
as(I66
I35
tp2114
(lp2115
(I66
I36
tp2116
a(I66
I34
tp2117
as(I111
I26
tp2118
(lp2119
(I110
I26
tp2120
a(I112
I26
tp2121
as(I134
I39
tp2122
(lp2123
(I134
I40
tp2124
a(I134
I38
tp2125
as(I66
I82
tp2126
(lp2127
(I66
I83
tp2128
a(I66
I81
tp2129
as(I108
I134
tp2130
(lp2131
(I107
I134
tp2132
a(I109
I134
tp2133
as(I74
I50
tp2134
(lp2135
(I73
I50
tp2136
a(I75
I50
tp2137
as(I39
I158
tp2138
(lp2139
(I38
I158
tp2140
a(I40
I158
tp2141
as(I82
I50
tp2142
(lp2143
(I81
I50
tp2144
a(I83
I50
tp2145
as(I28
I26
tp2146
(lp2147
(I27
I26
tp2148
a(I29
I26
tp2149
as(I74
I133
tp2150
(lp2151
(I74
I134
tp2152
a(I74
I132
tp2153
as(I115
I134
tp2154
(lp2155
(I114
I134
tp2156
a(I116
I134
tp2157
as(I150
I86
tp2158
(lp2159
(I150
I87
tp2160
a(I150
I85
tp2161
as(I26
I32
tp2162
(lp2163
(I26
I33
tp2164
a(I26
I31
tp2165
as(I112
I26
tp2166
(lp2167
(I111
I26
tp2168
a(I113
I26
tp2169
as(I94
I158
tp2170
(lp2171
(I93
I158
tp2172
a(I95
I158
tp2173
as(I26
I83
tp2174
(lp2175
(I26
I84
tp2176
a(I26
I82
tp2177
as(I66
I58
tp2178
(lp2179
(I66
I59
tp2180
a(I66
I57
tp2181
as(I20
I98
tp2182
(lp2183
(I19
I98
tp2184
a(I21
I98
tp2185
as(I134
I30
tp2186
(lp2187
(I134
I31
tp2188
a(I134
I29
tp2189
as(I105
I158
tp2190
(lp2191
(I104
I158
tp2192
a(I106
I158
tp2193
as(I158
I144
tp2194
(lp2195
(I158
I145
tp2196
a(I158
I143
tp2197
as(I87
I26
tp2198
(lp2199
(I86
I26
tp2200
a(I88
I26
tp2201
as(I96
I2
tp2202
(lp2203
(I95
I2
tp2204
a(I97
I2
tp2205
as(I110
I88
tp2206
(lp2207
(I110
I89
tp2208
a(I110
I87
tp2209
as(I150
I105
tp2210
(lp2211
(I150
I106
tp2212
a(I150
I104
tp2213
as(I26
I43
tp2214
(lp2215
(I26
I44
tp2216
a(I26
I42
tp2217
as(I135
I74
tp2218
(lp2219
(I134
I74
tp2220
a(I136
I74
tp2221
as(I106
I134
tp2222
(lp2223
(I105
I134
tp2224
a(I107
I134
tp2225
as(I152
I50
tp2226
(lp2227
(I151
I50
tp2228
a(I153
I50
tp2229
as(I26
I90
tp2230
(lp2231
(I26
I91
tp2232
a(I26
I89
tp2233
as(I66
I53
tp2234
(lp2235
(I66
I54
tp2236
a(I66
I52
tp2237
as(I158
I8
tp2238
(lp2239
(I158
I9
tp2240
a(I158
I7
tp2241
as(I110
I67
tp2242
(lp2243
(I110
I68
tp2244
a(I110
I66
tp2245
as(I25
I98
tp2246
(lp2247
(I24
I98
tp2248
a(I26
I98
tp2249
as(I134
I17
tp2250
(lp2251
(I134
I18
tp2252
a(I134
I16
tp2253
as(I158
I155
tp2254
(lp2255
(I158
I156
tp2256
a(I158
I154
tp2257
as(I109
I2
tp2258
(lp2259
(I108
I2
tp2260
a(I110
I2
tp2261
as(I55
I74
tp2262
(lp2263
(I54
I74
tp2264
a(I56
I74
tp2265
as(I63
I26
tp2266
(lp2267
(I62
I26
tp2268
a(I64
I26
tp2269
as(I150
I96
tp2270
(lp2271
(I150
I97
tp2272
a(I150
I95
tp2273
as(I26
I50
tp2274
(lp2275
(I25
I50
tp2276
a(I26
I51
tp2277
a(I26
I49
tp2278
as(I131
I158
tp2279
(lp2280
(I130
I158
tp2281
a(I132
I158
tp2282
as(I74
I145
tp2283
(lp2284
(I74
I146
tp2285
a(I74
I144
tp2286
as(I134
I121
tp2287
(lp2288
(I134
I122
tp2289
a(I134
I120
tp2290
as(I118
I18
tp2291
(lp2292
(I118
I19
tp2293
a(I118
I17
tp2294
as(I42
I37
tp2295
(lp2296
(I42
I38
tp2297
a(I42
I36
tp2298
as(I134
I8
tp2299
(lp2300
(I134
I9
tp2301
a(I134
I7
tp2302
as(I123
I50
tp2303
(lp2304
(I122
I50
tp2305
a(I124
I50
tp2306
as(I158
I130
tp2307
(lp2308
(I158
I131
tp2309
a(I158
I129
tp2310
as(I141
I122
tp2311
(lp2312
(I140
I122
tp2313
a(I142
I122
tp2314
as(I23
I122
tp2315
(lp2316
(I22
I122
tp2317
a(I24
I122
tp2318
as(I134
I155
tp2319
(lp2320
(I134
I156
tp2321
a(I134
I154
tp2322
as(I39
I26
tp2323
(lp2324
(I38
I26
tp2325
a(I40
I26
tp2326
as(I26
I61
tp2327
(lp2328
(I26
I62
tp2329
a(I26
I60
tp2330
as(I48
I98
tp2331
(lp2332
(I47
I98
tp2333
a(I49
I98
tp2334
as(I66
I50
tp2335
(lp2336
(I65
I50
tp2337
a(I67
I50
tp2338
a(I66
I51
tp2339
a(I66
I49
tp2340
as(I133
I98
tp2341
(lp2342
(I132
I98
tp2343
a(I134
I98
tp2344
as(I134
I112
tp2345
(lp2346
(I134
I113
tp2347
a(I134
I111
tp2348
as(I118
I21
tp2349
(lp2350
(I118
I22
tp2351
a(I118
I20
tp2352
as(I158
I122
tp2353
(lp2354
(I157
I122
tp2355
a(I158
I123
tp2356
as(I112
I158
tp2357
(lp2358
(I111
I158
tp2359
a(I113
I158
tp2360
as(I94
I2
tp2361
(lp2362
(I93
I2
tp2363
a(I95
I2
tp2364
as(I77
I122
tp2365
(lp2366
(I76
I122
tp2367
a(I78
I122
tp2368
as(I24
I122
tp2369
(lp2370
(I23
I122
tp2371
a(I25
I122
tp2372
as(I23
I2
tp2373
(lp2374
(I22
I2
tp2375
a(I24
I2
tp2376
as(I134
I3
tp2377
(lp2378
(I134
I4
tp2379
a(I134
I2
tp2380
as(I158
I133
tp2381
(lp2382
(I158
I134
tp2383
a(I158
I132
tp2384
as(I134
I146
tp2385
(lp2386
(I134
I147
tp2387
a(I134
I145
tp2388
as(I53
I98
tp2389
(lp2390
(I52
I98
tp2391
a(I54
I98
tp2392
as(I115
I98
tp2393
(lp2394
(I114
I98
tp2395
a(I116
I98
tp2396
as(I78
I26
tp2397
(lp2398
(I77
I26
tp2399
a(I79
I26
tp2400
as(I69
I98
tp2401
(lp2402
(I68
I98
tp2403
a(I70
I98
tp2404
as(I94
I122
tp2405
(lp2406
(I93
I122
tp2407
a(I95
I122
tp2408
as(I134
I107
tp2409
(lp2410
(I134
I108
tp2411
a(I134
I106
tp2412
as(I118
I108
tp2413
(lp2414
(I118
I109
tp2415
a(I118
I107
tp2416
as(I66
I30
tp2417
(lp2418
(I66
I31
tp2419
a(I66
I29
tp2420
as(I158
I125
tp2421
(lp2422
(I158
I126
tp2423
a(I158
I124
tp2424
as(I18
I157
tp2425
(lp2426
(I18
I158
tp2427
a(I18
I156
tp2428
as(I90
I158
tp2429
(lp2430
(I89
I158
tp2431
a(I91
I158
tp2432
as(I42
I23
tp2433
(lp2434
(I42
I24
tp2435
a(I42
I22
tp2436
as(I116
I50
tp2437
(lp2438
(I115
I50
tp2439
a(I117
I50
tp2440
as(I158
I140
tp2441
(lp2442
(I158
I141
tp2443
a(I158
I139
tp2444
as(I142
I74
tp2445
(lp2446
(I141
I74
tp2447
a(I143
I74
tp2448
as(I110
I85
tp2449
(lp2450
(I110
I86
tp2451
a(I110
I84
tp2452
as(I138
I26
tp2453
(lp2454
(I137
I26
tp2455
a(I139
I26
tp2456
as(I134
I149
tp2457
(lp2458
(I134
I150
tp2459
a(I134
I148
tp2460
as(I121
I26
tp2461
(lp2462
(I120
I26
tp2463
a(I122
I26
tp2464
as(I75
I50
tp2465
(lp2466
(I74
I50
tp2467
a(I76
I50
tp2468
as(I58
I102
tp2469
(lp2470
(I58
I103
tp2471
a(I58
I101
tp2472
as(I150
I117
tp2473
(lp2474
(I150
I118
tp2475
a(I150
I116
tp2476
as(I155
I122
tp2477
(lp2478
(I154
I122
tp2479
a(I156
I122
tp2480
as(I46
I74
tp2481
(lp2482
(I45
I74
tp2483
a(I47
I74
tp2484
as(I54
I26
tp2485
(lp2486
(I53
I26
tp2487
a(I55
I26
tp2488
as(I62
I74
tp2489
(lp2490
(I61
I74
tp2491
a(I63
I74
tp2492
as(I118
I103
tp2493
(lp2494
(I118
I104
tp2495
a(I118
I102
tp2496
as(I18
I148
tp2497
(lp2498
(I18
I149
tp2499
a(I18
I147
tp2500
as(I76
I98
tp2501
(lp2502
(I75
I98
tp2503
a(I77
I98
tp2504
as(I42
I30
tp2505
(lp2506
(I42
I31
tp2507
a(I42
I29
tp2508
as(I102
I124
tp2509
(lp2510
(I102
I125
tp2511
a(I102
I123
tp2512
as(I134
I140
tp2513
(lp2514
(I134
I141
tp2515
a(I134
I139
tp2516
as(I29
I122
tp2517
(lp2518
(I28
I122
tp2519
a(I30
I122
tp2520
as(I54
I98
tp2521
(lp2522
(I53
I98
tp2523
a(I55
I98
tp2524
as(I97
I26
tp2525
(lp2526
(I96
I26
tp2527
a(I98
I26
tp2528
as(I42
I118
tp2529
(lp2530
(I42
I119
tp2531
a(I42
I117
tp2532
as(I134
I101
tp2533
(lp2534
(I134
I102
tp2535
a(I134
I100
tp2536
as(I118
I126
tp2537
(lp2538
(I118
I127
tp2539
a(I118
I125
tp2540
as(I30
I26
tp2541
(lp2542
(I29
I26
tp2543
a(I31
I26
tp2544
as(I18
I143
tp2545
(lp2546
(I18
I144
tp2547
a(I18
I142
tp2548
as(I42
I25
tp2549
(lp2550
(I42
I26
tp2551
a(I42
I24
tp2552
as(I81
I98
tp2553
(lp2554
(I80
I98
tp2555
a(I82
I98
tp2556
as(I102
I119
tp2557
(lp2558
(I102
I120
tp2559
a(I102
I118
tp2560
as(I141
I158
tp2561
(lp2562
(I140
I158
tp2563
a(I142
I158
tp2564
as(I117
I158
tp2565
(lp2566
(I116
I158
tp2567
a(I118
I158
tp2568
as(I23
I158
tp2569
(lp2570
(I22
I158
tp2571
a(I24
I158
tp2572
as(I134
I135
tp2573
(lp2574
(I134
I136
tp2575
a(I134
I134
tp2576
as(I68
I50
tp2577
(lp2578
(I67
I50
tp2579
a(I69
I50
tp2580
as(I58
I104
tp2581
(lp2582
(I58
I105
tp2583
a(I58
I103
tp2584
as(I73
I26
tp2585
(lp2586
(I72
I26
tp2587
a(I74
I26
tp2588
as(I55
I158
tp2589
(lp2590
(I54
I158
tp2591
a(I56
I158
tp2592
as(I42
I113
tp2593
(lp2594
(I42
I114
tp2595
a(I42
I112
tp2596
as(I78
I158
tp2597
(lp2598
(I77
I158
tp2599
a(I79
I158
tp2600
as(I118
I113
tp2601
(lp2602
(I118
I114
tp2603
a(I118
I112
tp2604
as(I140
I158
tp2605
(lp2606
(I139
I158
tp2607
a(I141
I158
tp2608
as(I18
I134
tp2609
(lp2610
(I18
I135
tp2611
a(I18
I133
tp2612
as(I120
I74
tp2613
(lp2614
(I119
I74
tp2615
a(I121
I74
tp2616
as(I102
I110
tp2617
(lp2618
(I102
I111
tp2619
a(I102
I109
tp2620
as(I18
I25
tp2621
(lp2622
(I18
I26
tp2623
a(I18
I24
tp2624
as(I110
I158
tp2625
(lp2626
(I109
I158
tp2627
a(I111
I158
tp2628
as(I42
I147
tp2629
(lp2630
(I42
I148
tp2631
a(I42
I146
tp2632
as(I36
I2
tp2633
(lp2634
(I35
I2
tp2635
a(I37
I2
tp2636
as(I58
I115
tp2637
(lp2638
(I58
I116
tp2639
a(I58
I114
tp2640
as(I150
I30
tp2641
(lp2642
(I150
I31
tp2643
a(I150
I29
tp2644
as(I121
I158
tp2645
(lp2646
(I120
I158
tp2647
a(I122
I158
tp2648
as(I42
I120
tp2649
(lp2650
(I42
I121
tp2651
a(I42
I119
tp2652
as(I66
I98
tp2653
(lp2654
(I65
I98
tp2655
a(I67
I98
tp2656
a(I66
I97
tp2657
as(I49
I26
tp2658
(lp2659
(I48
I26
tp2660
a(I50
I26
tp2661
as(I31
I158
tp2662
(lp2663
(I30
I158
tp2664
a(I32
I158
tp2665
as(I18
I129
tp2666
(lp2667
(I18
I130
tp2668
a(I18
I128
tp2669
as(I54
I158
tp2670
(lp2671
(I53
I158
tp2672
a(I55
I158
tp2673
as(I20
I26
tp2674
(lp2675
(I19
I26
tp2676
a(I21
I26
tp2677
as(I42
I11
tp2678
(lp2679
(I42
I12
tp2680
a(I42
I10
tp2681
as(I82
I98
tp2682
(lp2683
(I81
I98
tp2684
a(I83
I98
tp2685
as(I18
I16
tp2686
(lp2687
(I18
I17
tp2688
a(I18
I15
tp2689
as(I74
I117
tp2690
(lp2691
(I74
I118
tp2692
a(I74
I116
tp2693
as(I95
I2
tp2694
(lp2695
(I94
I2
tp2696
a(I96
I2
tp2697
as(I42
I154
tp2698
(lp2699
(I42
I155
tp2700
a(I42
I153
tp2701
as(I104
I26
tp2702
(lp2703
(I103
I26
tp2704
a(I105
I26
tp2705
as(I33
I2
tp2706
(lp2707
(I32
I2
tp2708
a(I34
I2
tp2709
as(I155
I158
tp2710
(lp2711
(I154
I158
tp2712
a(I156
I158
tp2713
as(I58
I122
tp2714
(lp2715
(I58
I123
tp2716
a(I58
I121
tp2717
as(I26
I99
tp2718
(lp2719
(I26
I100
tp2720
a(I26
I98
tp2721
as(I42
I99
tp2722
(lp2723
(I42
I100
tp2724
a(I42
I98
tp2725
as(I79
I26
tp2726
(lp2727
(I78
I26
tp2728
a(I80
I26
tp2729
as(I102
I137
tp2730
(lp2731
(I102
I138
tp2732
a(I102
I136
tp2733
as(I18
I11
tp2734
(lp2735
(I18
I12
tp2736
a(I18
I10
tp2737
as(I74
I124
tp2738
(lp2739
(I74
I125
tp2740
a(I74
I123
tp2741
as(I147
I158
tp2742
(lp2743
(I146
I158
tp2744
a(I148
I158
tp2745
as(I42
I133
tp2746
(lp2747
(I42
I134
tp2748
a(I42
I132
tp2749
as(I135
I122
tp2750
(lp2751
(I134
I122
tp2752
a(I136
I122
tp2753
as(I125
I74
tp2754
(lp2755
(I124
I74
tp2756
a(I126
I74
tp2757
as(I144
I2
tp2758
(lp2759
(I143
I2
tp2760
a(I145
I2
tp2761
as(I110
I27
tp2762
(lp2763
(I110
I28
tp2764
a(I110
I26
tp2765
as(I58
I5
tp2766
(lp2767
(I58
I6
tp2768
a(I58
I4
tp2769
as(I106
I158
tp2770
(lp2771
(I105
I158
tp2772
a(I107
I158
tp2773
as(I80
I26
tp2774
(lp2775
(I79
I26
tp2776
a(I81
I26
tp2777
as(I26
I106
tp2778
(lp2779
(I26
I107
tp2780
a(I26
I105
tp2781
as(I42
I106
tp2782
(lp2783
(I42
I107
tp2784
a(I42
I105
tp2785
as(I134
I134
tp2786
(lp2787
(I134
I135
tp2788
a(I134
I133
tp2789
as(I101
I50
tp2790
(lp2791
(I100
I50
tp2792
a(I102
I50
tp2793
as(I102
I128
tp2794
(lp2795
(I102
I129
tp2796
a(I102
I127
tp2797
as(I109
I50
tp2798
(lp2799
(I108
I50
tp2800
a(I110
I50
tp2801
as(I55
I26
tp2802
(lp2803
(I54
I26
tp2804
a(I56
I26
tp2805
as(I64
I2
tp2806
(lp2807
(I63
I2
tp2808
a(I65
I2
tp2809
as(I150
I72
tp2810
(lp2811
(I150
I73
tp2812
a(I150
I71
tp2813
as(I110
I92
tp2814
(lp2815
(I110
I93
tp2816
a(I110
I91
tp2817
as(I74
I103
tp2818
(lp2819
(I74
I104
tp2820
a(I74
I102
tp2821
as(I42
I140
tp2822
(lp2823
(I42
I141
tp2824
a(I42
I139
tp2825
as(I157
I2
tp2826
(lp2827
(I156
I2
tp2828
a(I158
I2
tp2829
as(I110
I34
tp2830
(lp2831
(I110
I35
tp2832
a(I110
I33
tp2833
as(I58
I12
tp2834
(lp2835
(I58
I13
tp2836
a(I58
I11
tp2837
as(I150
I35
tp2838
(lp2839
(I150
I36
tp2840
a(I150
I34
tp2841
as(I26
I117
tp2842
(lp2843
(I26
I118
tp2844
a(I26
I116
tp2845
as(I47
I98
tp2846
(lp2847
(I46
I98
tp2848
a(I48
I98
tp2849
as(I157
I26
tp2850
(lp2851
(I156
I26
tp2852
a(I158
I26
tp2853
as(I38
I158
tp2854
(lp2855
(I37
I158
tp2856
a(I39
I158
tp2857
as(I66
I79
tp2858
(lp2859
(I66
I80
tp2860
a(I66
I78
tp2861
as(I77
I2
tp2862
(lp2863
(I76
I2
tp2864
a(I78
I2
tp2865
as(I49
I158
tp2866
(lp2867
(I48
I158
tp2868
a(I50
I158
tp2869
as(I31
I26
tp2870
(lp2871
(I30
I26
tp2872
a(I32
I26
tp2873
as(I18
I125
tp2874
(lp2875
(I18
I126
tp2876
a(I18
I124
tp2877
as(I74
I110
tp2878
(lp2879
(I74
I111
tp2880
a(I74
I109
tp2881
as(I39
I74
tp2882
(lp2883
(I38
I74
tp2884
a(I40
I74
tp2885
as(I150
I75
tp2886
(lp2887
(I150
I76
tp2888
a(I150
I74
tp2889
as(I57
I158
tp2890
(lp2891
(I56
I158
tp2892
a(I58
I158
tp2893
as(I99
I122
tp2894
(lp2895
(I98
I122
tp2896
a(I100
I122
tp2897
as(I110
I37
tp2898
(lp2899
(I110
I38
tp2900
a(I110
I36
tp2901
as(I58
I23
tp2902
(lp2903
(I58
I24
tp2904
a(I58
I22
tp2905
as(I150
I58
tp2906
(lp2907
(I150
I59
tp2908
a(I150
I57
tp2909
as(I81
I158
tp2910
(lp2911
(I80
I158
tp2912
a(I82
I158
tp2913
as(I104
I158
tp2914
(lp2915
(I103
I158
tp2916
a(I105
I158
tp2917
as(I58
I134
tp2918
(lp2919
(I59
I134
tp2920
a(I58
I133
tp2921
as(I66
I70
tp2922
(lp2923
(I66
I71
tp2924
a(I66
I69
tp2925
as(I65
I134
tp2926
(lp2927
(I64
I134
tp2928
a(I66
I134
tp2929
as(I142
I2
tp2930
(lp2931
(I141
I2
tp2932
a(I143
I2
tp2933
as(I53
I50
tp2934
(lp2935
(I52
I50
tp2936
a(I54
I50
tp2937
as(I74
I105
tp2938
(lp2939
(I74
I106
tp2940
a(I74
I104
tp2941
as(I150
I66
tp2942
(lp2943
(I150
I67
tp2944
a(I150
I65
tp2945
as(I110
I44
tp2946
(lp2947
(I110
I45
tp2948
a(I110
I43
tp2949
as(I150
I61
tp2950
(lp2951
(I150
I62
tp2952
a(I150
I60
tp2953
as(I26
I71
tp2954
(lp2955
(I26
I72
tp2956
a(I26
I70
tp2957
as(I66
I46
tp2958
(lp2959
(I66
I47
tp2960
a(I66
I45
tp2961
as(I128
I74
tp2962
(lp2963
(I127
I74
tp2964
a(I129
I74
tp2965
as(I108
I2
tp2966
(lp2967
(I107
I2
tp2968
a(I109
I2
tp2969
as(I58
I129
tp2970
(lp2971
(I58
I130
tp2972
a(I58
I128
tp2973
as(I80
I158
tp2974
(lp2975
(I79
I158
tp2976
a(I81
I158
tp2977
as(I134
I42
tp2978
(lp2979
(I134
I43
tp2980
a(I134
I41
tp2981
as(I66
I65
tp2982
(lp2983
(I66
I66
tp2984
a(I66
I64
tp2985
as(I110
I77
tp2986
(lp2987
(I110
I78
tp2988
a(I110
I76
tp2989
as(I59
I98
tp2990
(lp2991
(I58
I98
tp2992
a(I60
I98
tp2993
as(I110
I68
tp2994
(lp2995
(I110
I69
tp2996
a(I110
I67
tp2997
as(I75
I98
tp2998
(lp2999
(I74
I98
tp3000
a(I76
I98
tp3001
as(I150
I69
tp3002
(lp3003
(I150
I70
tp3004
a(I150
I68
tp3005
as(I100
I122
tp3006
(lp3007
(I99
I122
tp3008
a(I101
I122
tp3009
as(I46
I26
tp3010
(lp3011
(I45
I26
tp3012
a(I47
I26
tp3013
as(I110
I55
tp3014
(lp3015
(I110
I56
tp3016
a(I110
I54
tp3017
as(I58
I25
tp3018
(lp3019
(I58
I26
tp3020
a(I58
I24
tp3021
as(I150
I52
tp3022
(lp3023
(I150
I53
tp3024
a(I150
I51
tp3025
as(I26
I78
tp3026
(lp3027
(I26
I79
tp3028
a(I26
I77
tp3029
as(I66
I41
tp3030
(lp3031
(I66
I42
tp3032
a(I66
I40
tp3033
as(I105
I2
tp3034
(lp3035
(I104
I2
tp3036
a(I106
I2
tp3037
as(I158
I20
tp3038
(lp3039
(I158
I21
tp3040
a(I158
I19
tp3041
as(I131
I50
tp3042
(lp3043
(I130
I50
tp3044
a(I132
I50
tp3045
as(I134
I45
tp3046
(lp3047
(I134
I46
tp3048
a(I134
I44
tp3049
as(I66
I88
tp3050
(lp3051
(I66
I89
tp3052
a(I66
I87
tp3053
as(I89
I26
tp3054
(lp3055
(I88
I26
tp3056
a(I90
I26
tp3057
as(I110
I79
tp3058
(lp3059
(I110
I80
tp3060
a(I110
I78
tp3061
as(I114
I50
tp3062
(lp3063
(I113
I50
tp3064
a(I115
I50
tp3065
as(I150
I92
tp3066
(lp3067
(I150
I93
tp3068
a(I150
I91
tp3069
as(I26
I38
tp3070
(lp3071
(I26
I39
tp3072
a(I26
I37
tp3073
as(I122
I98
tp3074
(lp3075
(I121
I98
tp3076
a(I123
I98
tp3077
as(I150
I40
tp3078
(lp3079
(I150
I41
tp3080
a(I150
I39
tp3081
as(I110
I62
tp3082
(lp3083
(I110
I63
tp3084
a(I110
I61
tp3085
as(I22
I26
tp3086
(lp3087
(I21
I26
tp3088
a(I23
I26
tp3089
as(I26
I73
tp3090
(lp3091
(I26
I74
tp3092
a(I26
I72
tp3093
as(I118
I14
tp3094
(lp3095
(I118
I15
tp3096
a(I118
I13
tp3097
as(I137
I74
tp3098
(lp3099
(I136
I74
tp3100
a(I138
I74
tp3101
as(I66
I32
tp3102
(lp3103
(I66
I33
tp3104
a(I66
I31
tp3105
as(I133
I158
tp3106
(lp3107
(I132
I158
tp3108
a(I134
I158
tp3109
as(I134
I36
tp3110
(lp3111
(I134
I37
tp3112
a(I134
I35
tp3113
as(I63
I134
tp3114
(lp3115
(I62
I134
tp3116
a(I64
I134
tp3117
as(I66
I83
tp3118
(lp3119
(I66
I84
tp3120
a(I66
I82
tp3121
as(I60
I98
tp3122
(lp3123
(I59
I98
tp3124
a(I61
I98
tp3125
as(I83
I26
tp3126
(lp3127
(I82
I26
tp3128
a(I84
I26
tp3129
as(I74
I130
tp3130
(lp3131
(I74
I131
tp3132
a(I74
I129
tp3133
as(I57
I74
tp3134
(lp3135
(I56
I74
tp3136
a(I58
I74
tp3137
as(I150
I87
tp3138
(lp3139
(I150
I88
tp3140
a(I150
I86
tp3141
as(I26
I33
tp3142
(lp3143
(I26
I34
tp3144
a(I26
I32
tp3145
as(I154
I26
tp3146
(lp3147
(I153
I26
tp3148
a(I155
I26
tp3149
as(I65
I26
tp3150
(lp3151
(I64
I26
tp3152
a(I66
I26
tp3153
as(I47
I158
tp3154
(lp3155
(I46
I158
tp3156
a(I48
I158
tp3157
as(I90
I2
tp3158
(lp3159
(I89
I2
tp3160
a(I91
I2
tp3161
as(I19
I2
tp3162
(lp3163
(I18
I2
tp3164
a(I20
I2
tp3165
as(I26
I80
tp3166
(lp3167
(I26
I81
tp3168
a(I26
I79
tp3169
as(I66
I59
tp3170
(lp3171
(I66
I60
tp3172
a(I66
I58
tp3173
as(I103
I98
tp3174
(lp3175
(I102
I98
tp3176
a(I104
I98
tp3177
as(I158
I6
tp3178
(lp3179
(I158
I7
tp3180
a(I158
I5
tp3181
as(I74
I150
tp3182
(lp3183
(I74
I151
tp3184
a(I74
I149
tp3185
as(I42
I48
tp3186
(lp3187
(I42
I49
tp3188
a(I42
I47
tp3189
as(I134
I31
tp3190
(lp3191
(I134
I32
tp3192
a(I134
I30
tp3193
as(I120
I26
tp3194
(lp3195
(I119
I26
tp3196
a(I121
I26
tp3197
as(I158
I145
tp3198
(lp3199
(I158
I146
tp3200
a(I158
I144
tp3201
as(I129
I98
tp3202
(lp3203
(I128
I98
tp3204
a(I130
I98
tp3205
as(I62
I134
tp3206
(lp3207
(I61
I134
tp3208
a(I63
I134
tp3209
as(I65
I98
tp3210
(lp3211
(I64
I98
tp3212
a(I66
I98
tp3213
as(I74
I141
tp3214
(lp3215
(I74
I142
tp3216
a(I74
I140
tp3217
as(I150
I110
tp3218
(lp3219
(I150
I111
tp3220
a(I150
I109
tp3221
as(I26
I40
tp3222
(lp3223
(I26
I41
tp3224
a(I26
I39
tp3225
as(I130
I26
tp3226
(lp3227
(I129
I26
tp3228
a(I131
I26
tp3229
as(I41
I26
tp3230
(lp3231
(I40
I26
tp3232
a(I42
I26
tp3233
as(I62
I50
tp3234
(lp3235
(I61
I50
tp3236
a(I63
I50
tp3237
as(I26
I91
tp3238
(lp3239
(I26
I92
tp3240
a(I26
I90
tp3241
as(I118
I24
tp3242
(lp3243
(I118
I25
tp3244
a(I118
I23
tp3245
as(I138
I74
tp3246
(lp3247
(I137
I74
tp3248
a(I139
I74
tp3249
as(I158
I9
tp3250
(lp3251
(I158
I10
tp3252
a(I158
I8
tp3253
as(I134
I22
tp3254
(lp3255
(I134
I23
tp3256
a(I134
I21
tp3257
as(I105
I134
tp3258
(lp3259
(I104
I134
tp3260
a(I106
I134
tp3261
as(I158
I152
tp3262
(lp3263
(I158
I153
tp3264
a(I158
I151
tp3265
as(I96
I26
tp3266
(lp3267
(I95
I26
tp3268
a(I97
I26
tp3269
as(I95
I50
tp3270
(lp3271
(I94
I50
tp3272
a(I96
I50
tp3273
as(I110
I96
tp3274
(lp3275
(I110
I97
tp3276
a(I110
I95
tp3277
as(I58
I74
tp3278
(lp3279
(I57
I74
tp3280
a(I59
I74
tp3281
as(I150
I97
tp3282
(lp3283
(I150
I98
tp3284
a(I150
I96
tp3285
as(I26
I51
tp3286
(lp3287
(I26
I52
tp3288
a(I26
I50
tp3289
as(I144
I74
tp3290
(lp3291
(I143
I74
tp3292
a(I145
I74
tp3293
as(I143
I2
tp3294
(lp3295
(I142
I2
tp3296
a(I144
I2
tp3297
as(I136
I122
tp3298
(lp3299
(I135
I122
tp3300
a(I137
I122
tp3301
as(I118
I19
tp3302
(lp3303
(I118
I20
tp3304
a(I118
I18
tp3305
as(I42
I34
tp3306
(lp3307
(I42
I35
tp3308
a(I42
I33
tp3309
as(I134
I9
tp3310
(lp3311
(I134
I10
tp3312
a(I134
I8
tp3313
as(I158
I131
tp3314
(lp3315
(I158
I132
tp3316
a(I158
I130
tp3317
as(I117
I74
tp3318
(lp3319
(I116
I74
tp3320
a(I118
I74
tp3321
as(I64
I74
tp3322
(lp3323
(I63
I74
tp3324
a(I65
I74
tp3325
as(I63
I2
tp3326
(lp3327
(I62
I2
tp3328
a(I64
I2
tp3329
as(I72
I26
tp3330
(lp3331
(I71
I26
tp3332
a(I73
I26
tp3333
as(I149
I122
tp3334
(lp3335
(I148
I122
tp3336
a(I150
I122
tp3337
as(I150
I120
tp3338
(lp3339
(I150
I121
tp3340
a(I150
I119
tp3341
as(I26
I58
tp3342
(lp3343
(I26
I59
tp3344
a(I26
I57
tp3345
as(I18
I2
tp3346
(lp3347
(I19
I2
tp3348
a(I18
I3
tp3349
as(I93
I98
tp3350
(lp3351
(I92
I98
tp3352
a(I94
I98
tp3353
as(I134
I113
tp3354
(lp3355
(I134
I114
tp3356
a(I134
I112
tp3357
as(I118
I106
tp3358
(lp3359
(I118
I107
tp3360
a(I118
I105
tp3361
as(I47
I26
tp3362
(lp3363
(I46
I26
tp3364
a(I48
I26
tp3365
as(I158
I123
tp3366
(lp3367
(I158
I124
tp3368
a(I158
I122
tp3369
as(I109
I98
tp3370
(lp3371
(I108
I98
tp3372
a(I110
I98
tp3373
as(I42
I45
tp3374
(lp3375
(I42
I46
tp3376
a(I42
I44
tp3377
as(I158
I138
tp3378
(lp3379
(I158
I139
tp3380
a(I158
I137
tp3381
as(I74
I128
tp3382
(lp3383
(I74
I129
tp3384
a(I74
I127
tp3385
as(I97
I158
tp3386
(lp3387
(I96
I158
tp3388
a(I98
I158
tp3389
as(I134
I147
tp3390
(lp3391
(I134
I148
tp3392
a(I134
I146
tp3393
as(I120
I158
tp3394
(lp3395
(I119
I158
tp3396
a(I121
I158
tp3397
as(I85
I122
tp3398
(lp3399
(I84
I122
tp3400
a(I86
I122
tp3401
as(I32
I122
tp3402
(lp3403
(I31
I122
tp3404
a(I33
I122
tp3405
as(I150
I115
tp3406
(lp3407
(I150
I116
tp3408
a(I150
I114
tp3409
as(I48
I26
tp3410
(lp3411
(I47
I26
tp3412
a(I49
I26
tp3413
as(I30
I158
tp3414
(lp3415
(I29
I158
tp3416
a(I31
I158
tp3417
as(I134
I104
tp3418
(lp3419
(I134
I105
tp3420
a(I134
I103
tp3421
as(I118
I109
tp3422
(lp3423
(I118
I110
tp3424
a(I118
I108
tp3425
as(I66
I31
tp3426
(lp3427
(I66
I32
tp3428
a(I66
I30
tp3429
as(I103
I134
tp3430
(lp3431
(I102
I134
tp3432
a(I104
I134
tp3433
as(I158
I98
tp3434
(lp3435
(I157
I98
tp3436
as(I141
I26
tp3437
(lp3438
(I140
I26
tp3439
a(I142
I26
tp3440
as(I18
I154
tp3441
(lp3442
(I18
I155
tp3443
a(I18
I153
tp3444
as(I41
I158
tp3445
(lp3446
(I40
I158
tp3447
a(I42
I158
tp3448
as(I42
I20
tp3449
(lp3450
(I42
I21
tp3451
a(I42
I19
tp3452
as(I23
I26
tp3453
(lp3454
(I22
I26
tp3455
a(I24
I26
tp3456
as(I102
I122
tp3457
(lp3458
(I101
I122
tp3459
a(I102
I123
tp3460
a(I102
I121
tp3461
as(I32
I2
tp3462
(lp3463
(I31
I2
tp3464
a(I33
I2
tp3465
as(I31
I74
tp3466
(lp3467
(I30
I74
tp3468
a(I32
I74
tp3469
as(I134
I138
tp3470
(lp3471
(I134
I139
tp3472
a(I134
I137
tp3473
as(I107
I26
tp3474
(lp3475
(I106
I26
tp3476
a(I108
I26
tp3477
as(I73
I158
tp3478
(lp3479
(I72
I158
tp3480
a(I74
I158
tp3481
as(I58
I103
tp3482
(lp3483
(I58
I104
tp3484
a(I58
I102
tp3485
as(I96
I158
tp3486
(lp3487
(I95
I158
tp3488
a(I97
I158
tp3489
as(I78
I98
tp3490
(lp3491
(I77
I98
tp3492
a(I79
I98
tp3493
as(I94
I98
tp3494
(lp3495
(I93
I98
tp3496
a(I95
I98
tp3497
as(I134
I99
tp3498
(lp3499
(I134
I100
tp3500
a(I134
I98
tp3501
as(I118
I100
tp3502
(lp3503
(I118
I101
tp3504
a(I118
I99
tp3505
as(I18
I149
tp3506
(lp3507
(I18
I150
tp3508
a(I18
I148
tp3509
as(I42
I31
tp3510
(lp3511
(I42
I32
tp3512
a(I42
I30
tp3513
as(I102
I125
tp3514
(lp3515
(I102
I126
tp3516
a(I102
I124
tp3517
as(I45
I74
tp3518
(lp3519
(I44
I74
tp3520
a(I46
I74
tp3521
as(I134
I141
tp3522
(lp3523
(I134
I142
tp3524
a(I134
I140
tp3525
as(I58
I110
tp3526
(lp3527
(I58
I111
tp3528
a(I58
I109
tp3529
as(I100
I50
tp3530
(lp3531
(I99
I50
tp3532
a(I101
I50
tp3533
as(I108
I50
tp3534
(lp3535
(I107
I50
tp3536
a(I109
I50
tp3537
as(I37
I122
tp3538
(lp3539
(I36
I122
tp3540
a(I38
I122
tp3541
as(I42
I119
tp3542
(lp3543
(I42
I120
tp3544
a(I42
I118
tp3545
as(I118
I127
tp3546
(lp3547
(I118
I128
tp3548
a(I118
I126
tp3549
as(I18
I140
tp3550
(lp3551
(I18
I141
tp3552
a(I18
I139
tp3553
as(I59
I50
tp3554
(lp3555
(I58
I50
tp3556
a(I60
I50
tp3557
as(I42
I6
tp3558
(lp3559
(I42
I7
tp3560
a(I42
I5
tp3561
as(I102
I116
tp3562
(lp3563
(I102
I117
tp3564
a(I102
I115
tp3565
as(I134
I132
tp3566
(lp3567
(I134
I133
tp3568
a(I134
I131
tp3569
as(I150
I90
tp3570
(lp3571
(I150
I91
tp3572
a(I150
I89
tp3573
as(I58
I105
tp3574
(lp3575
(I58
I106
tp3576
a(I58
I104
tp3577
as(I149
I158
tp3578
(lp3579
(I148
I158
tp3580
a(I150
I158
tp3581
as(I129
I74
tp3582
(lp3583
(I128
I74
tp3584
a(I130
I74
tp3585
as(I26
I30
tp3586
(lp3587
(I26
I31
tp3588
a(I26
I29
tp3589
as(I105
I50
tp3590
(lp3591
(I104
I50
tp3592
a(I106
I50
tp3593
as(I76
I2
tp3594
(lp3595
(I75
I2
tp3596
a(I77
I2
tp3597
as(I42
I126
tp3598
(lp3599
(I42
I127
tp3600
a(I42
I125
tp3601
as(I118
I118
tp3602
(lp3603
(I118
I119
tp3604
a(I118
I117
tp3605
as(I102
I156
tp3606
(lp3607
(I102
I157
tp3608
a(I102
I155
tp3609
as(I30
I2
tp3610
(lp3611
(I29
I2
tp3612
a(I31
I2
tp3613
as(I18
I135
tp3614
(lp3615
(I18
I136
tp3616
a(I18
I134
tp3617
as(I153
I2
tp3618
(lp3619
(I152
I2
tp3620
a(I154
I2
tp3621
as(I102
I111
tp3622
(lp3623
(I102
I112
tp3624
a(I102
I110
tp3625
as(I106
I98
tp3626
(lp3627
(I105
I98
tp3628
a(I107
I98
tp3629
as(I101
I158
tp3630
(lp3631
(I100
I158
tp3632
a(I102
I158
tp3633
as(I18
I22
tp3634
(lp3635
(I18
I23
tp3636
a(I18
I21
tp3637
as(I42
I144
tp3638
(lp3639
(I42
I145
tp3640
a(I42
I143
tp3641
as(I58
I112
tp3642
(lp3643
(I58
I113
tp3644
a(I58
I111
tp3645
as(I150
I31
tp3646
(lp3647
(I150
I32
tp3648
a(I150
I30
tp3649
as(I73
I2
tp3650
(lp3651
(I72
I2
tp3652
a(I74
I2
tp3653
as(I142
I158
tp3654
(lp3655
(I141
I158
tp3656
a(I143
I158
tp3657
as(I42
I121
tp3658
(lp3659
(I42
I122
tp3660
a(I42
I120
tp3661
as(I64
I134
tp3662
(lp3663
(I63
I134
tp3664
a(I65
I134
tp3665
as(I102
I151
tp3666
(lp3667
(I102
I152
tp3668
a(I102
I150
tp3669
as(I107
I134
tp3670
(lp3671
(I106
I134
tp3672
a(I108
I134
tp3673
as(I52
I50
tp3674
(lp3675
(I51
I50
tp3676
a(I53
I50
tp3677
as(I42
I8
tp3678
(lp3679
(I42
I9
tp3680
a(I42
I7
tp3681
as(I102
I102
tp3682
(lp3683
(I102
I103
tp3684
a(I102
I101
tp3685
as(I157
I158
tp3686
(lp3687
(I156
I158
tp3688
a(I158
I158
tp3689
as(I18
I17
tp3690
(lp3691
(I18
I18
tp3692
a(I18
I16
tp3693
as(I74
I114
tp3694
(lp3695
(I74
I115
tp3696
a(I74
I113
tp3697
as(I57
I26
tp3698
(lp3699
(I56
I26
tp3700
a(I58
I26
tp3701
as(I42
I155
tp3702
(lp3703
(I42
I156
tp3704
a(I42
I154
tp3705
as(I116
I134
tp3706
(lp3707
(I115
I134
tp3708
a(I117
I134
tp3709
as(I58
I123
tp3710
(lp3711
(I58
I124
tp3712
a(I58
I122
tp3713
as(I26
I96
tp3714
(lp3715
(I26
I97
tp3716
a(I26
I95
tp3717
as(I138
I2
tp3718
(lp3719
(I137
I2
tp3720
a(I139
I2
tp3721
as(I151
I98
tp3722
(lp3723
(I150
I98
tp3724
a(I152
I98
tp3725
as(I74
I139
tp3726
(lp3727
(I74
I140
tp3728
a(I74
I138
tp3729
as(I74
I125
tp3730
(lp3731
(I74
I126
tp3732
a(I74
I124
tp3733
as(I42
I130
tp3734
(lp3735
(I42
I131
tp3736
a(I42
I129
tp3737
as(I84
I50
tp3738
(lp3739
(I83
I50
tp3740
a(I85
I50
tp3741
as(I104
I2
tp3742
(lp3743
(I103
I2
tp3744
a(I105
I2
tp3745
as(I33
I26
tp3746
(lp3747
(I32
I26
tp3748
a(I34
I26
tp3749
as(I58
I2
tp3750
(lp3751
(I59
I2
tp3752
a(I58
I3
tp3753
as(I150
I41
tp3754
(lp3755
(I150
I42
tp3756
a(I150
I40
tp3757
as(I26
I107
tp3758
(lp3759
(I26
I108
tp3760
a(I26
I106
tp3761
as(I143
I122
tp3762
(lp3763
(I142
I122
tp3764
a(I144
I122
tp3765
as(I42
I107
tp3766
(lp3767
(I42
I108
tp3768
a(I42
I106
tp3769
as(I102
I129
tp3770
(lp3771
(I102
I130
tp3772
a(I102
I128
tp3773
as(I88
I26
tp3774
(lp3775
(I87
I26
tp3776
a(I89
I26
tp3777
as(I87
I98
tp3778
(lp3779
(I86
I98
tp3780
a(I88
I98
tp3781
as(I18
I3
tp3782
(lp3783
(I18
I4
tp3784
a(I18
I2
tp3785
as(I74
I100
tp3786
(lp3787
(I74
I101
tp3788
a(I74
I99
tp3789
as(I42
I141
tp3790
(lp3791
(I42
I142
tp3792
a(I42
I140
tp3793
as(I117
I2
tp3794
(lp3795
(I116
I2
tp3796
a(I118
I2
tp3797
as(I144
I122
tp3798
(lp3799
(I143
I122
tp3800
a(I145
I122
tp3801
as(I110
I35
tp3802
(lp3803
(I110
I36
tp3804
a(I110
I34
tp3805
as(I58
I13
tp3806
(lp3807
(I58
I14
tp3808
a(I58
I12
tp3809
as(I150
I32
tp3810
(lp3811
(I150
I33
tp3812
a(I150
I31
tp3813
as(I79
I122
tp3814
(lp3815
(I78
I122
tp3816
a(I80
I122
tp3817
as(I26
I114
tp3818
(lp3819
(I26
I115
tp3820
a(I26
I113
tp3821
as(I127
I98
tp3822
(lp3823
(I126
I98
tp3824
a(I128
I98
tp3825
as(I66
I76
tp3826
(lp3827
(I66
I77
tp3828
a(I66
I75
tp3829
as(I126
I50
tp3830
(lp3831
(I125
I50
tp3832
a(I127
I50
tp3833
as(I64
I26
tp3834
(lp3835
(I63
I26
tp3836
a(I65
I26
tp3837
as(I46
I158
tp3838
(lp3839
(I45
I158
tp3840
a(I47
I158
tp3841
as(I18
I122
tp3842
(lp3843
(I19
I122
tp3844
a(I18
I123
tp3845
as(I74
I111
tp3846
(lp3847
(I74
I112
tp3848
a(I74
I110
tp3849
as(I149
I74
tp3850
(lp3851
(I148
I74
tp3852
a(I150
I74
tp3853
as(I80
I122
tp3854
(lp3855
(I79
I122
tp3856
a(I81
I122
tp3857
as(I85
I50
tp3858
(lp3859
(I84
I50
tp3860
a(I86
I50
tp3861
as(I110
I42
tp3862
(lp3863
(I110
I43
tp3864
a(I110
I41
tp3865
as(I93
I50
tp3866
(lp3867
(I92
I50
tp3868
a(I94
I50
tp3869
as(I58
I20
tp3870
(lp3871
(I58
I21
tp3872
a(I58
I19
tp3873
as(I150
I59
tp3874
(lp3875
(I150
I60
tp3876
a(I150
I58
tp3877
as(I65
I74
tp3878
(lp3879
(I64
I74
tp3880
a(I66
I74
tp3881
as(I56
I98
tp3882
(lp3883
(I55
I98
tp3884
a(I57
I98
tp3885
as(I134
I48
tp3886
(lp3887
(I134
I49
tp3888
a(I134
I47
tp3889
as(I66
I71
tp3890
(lp3891
(I66
I72
tp3892
a(I66
I70
tp3893
as(I123
I26
tp3894
(lp3895
(I122
I26
tp3896
a(I124
I26
tp3897
as(I94
I50
tp3898
(lp3899
(I93
I50
tp3900
a(I95
I50
tp3901
as(I89
I158
tp3902
(lp3903
(I88
I158
tp3904
a(I90
I158
tp3905
as(I110
I76
tp3906
(lp3907
(I110
I77
tp3908
a(I110
I75
tp3909
as(I102
I2
tp3910
(lp3911
(I101
I2
tp3912
a(I103
I2
tp3913
as(I157
I98
tp3914
(lp3915
(I156
I98
tp3916
a(I158
I98
tp3917
as(I32
I74
tp3918
(lp3919
(I31
I74
tp3920
a(I33
I74
tp3921
as(I31
I2
tp3922
(lp3923
(I30
I2
tp3924
a(I32
I2
tp3925
as(I110
I66
tp3926
(lp3927
(I110
I67
tp3928
a(I110
I65
tp3929
as(I40
I26
tp3930
(lp3931
(I39
I26
tp3932
a(I41
I26
tp3933
as(I22
I158
tp3934
(lp3935
(I21
I158
tp3936
a(I23
I158
tp3937
as(I150
I67
tp3938
(lp3939
(I150
I68
tp3940
a(I150
I66
tp3941
as(I99
I98
tp3942
(lp3943
(I98
I98
tp3944
a(I100
I98
tp3945
as(I118
I130
tp3946
(lp3947
(I118
I131
tp3948
a(I118
I129
tp3949
as(I48
I74
tp3950
(lp3951
(I47
I74
tp3952
a(I49
I74
tp3953
as(I110
I45
tp3954
(lp3955
(I110
I46
tp3956
a(I110
I44
tp3957
as(I150
I50
tp3958
(lp3959
(I151
I50
tp3960
a(I150
I51
tp3961
a(I150
I49
tp3962
as(I133
I26
tp3963
(lp3964
(I132
I26
tp3965
a(I134
I26
tp3966
as(I26
I68
tp3967
(lp3968
(I26
I69
tp3969
a(I26
I67
tp3970
as(I66
I47
tp3971
(lp3972
(I66
I48
tp3973
a(I66
I46
tp3974
as(I104
I134
tp3975
(lp3976
(I103
I134
tp3977
a(I105
I134
tp3978
as(I158
I18
tp3979
(lp3980
(I158
I19
tp3981
a(I158
I17
tp3982
as(I33
I158
tp3983
(lp3984
(I32
I158
tp3985
a(I34
I158
tp3986
as(I134
I43
tp3987
(lp3988
(I134
I44
tp3989
a(I134
I42
tp3990
as(I66
I94
tp3991
(lp3992
(I66
I95
tp3993
a(I66
I93
tp3994
as(I31
I122
tp3995
(lp3996
(I30
I122
tp3997
a(I32
I122
tp3998
as(I99
I26
tp3999
(lp4000
(I98
I26
tp4001
a(I100
I26
tp4002
as(I65
I158
tp4003
(lp4004
(I64
I158
tp4005
a(I66
I158
tp4006
as(I88
I158
tp4007
(lp4008
(I87
I158
tp4009
a(I89
I158
tp4010
as(I110
I69
tp4011
(lp4012
(I110
I70
tp4013
a(I110
I68
tp4014
as(I78
I50
tp4015
(lp4016
(I77
I50
tp4017
a(I79
I50
tp4018
as(I118
I133
tp4019
(lp4020
(I118
I134
tp4021
a(I118
I132
tp4022
as(I110
I52
tp4023
(lp4024
(I110
I53
tp4025
a(I110
I51
tp4026
as(I150
I53
tp4027
(lp4028
(I150
I54
tp4029
a(I150
I52
tp4030
as(I26
I79
tp4031
(lp4032
(I26
I80
tp4033
a(I26
I78
tp4034
as(I66
I38
tp4035
(lp4036
(I66
I39
tp4037
a(I66
I37
tp4038
as(I158
I21
tp4039
(lp4040
(I158
I22
tp4041
a(I158
I20
tp4042
as(I71
I134
tp4043
(lp4044
(I70
I134
tp4045
a(I72
I134
tp4046
as(I134
I34
tp4047
(lp4048
(I134
I35
tp4049
a(I134
I33
tp4050
as(I45
I50
tp4051
(lp4052
(I44
I50
tp4053
a(I46
I50
tp4054
as(I66
I89
tp4055
(lp4056
(I66
I90
tp4057
a(I66
I88
tp4058
as(I24
I158
tp4059
(lp4060
(I23
I158
tp4061
a(I25
I158
tp4062
as(I84
I98
tp4063
(lp4064
(I83
I98
tp4065
a(I85
I98
tp4066
as(I139
I2
tp4067
(lp4068
(I138
I2
tp4069
a(I140
I2
tp4070
as(I74
I152
tp4071
(lp4072
(I74
I153
tp4073
a(I74
I151
tp4074
as(I75
I26
tp4075
(lp4076
(I74
I26
tp4077
a(I76
I26
tp4078
as(I150
I93
tp4079
(lp4080
(I150
I94
tp4081
a(I150
I92
tp4082
as(I26
I39
tp4083
(lp4084
(I26
I40
tp4085
a(I26
I38
tp4086
as(I100
I98
tp4087
(lp4088
(I99
I98
tp4089
a(I101
I98
tp4090
as(I102
I150
tp4091
(lp4092
(I102
I151
tp4093
a(I102
I149
tp4094
as(I110
I63
tp4095
(lp4096
(I110
I64
tp4097
a(I110
I62
tp4098
as(I26
I86
tp4099
(lp4100
(I26
I87
tp4101
a(I26
I85
tp4102
as(I118
I15
tp4103
(lp4104
(I118
I16
tp4105
a(I118
I14
tp4106
as(I66
I33
tp4107
(lp4108
(I66
I34
tp4109
a(I66
I32
tp4110
as(I59
I2
tp4111
(lp4112
(I58
I2
tp4113
a(I60
I2
tp4114
as(I134
I37
tp4115
(lp4116
(I134
I38
tp4117
a(I134
I36
tp4118
as(I66
I80
tp4119
(lp4120
(I66
I81
tp4121
a(I66
I79
tp4122
as(I89
I98
tp4123
(lp4124
(I88
I98
tp4125
a(I90
I98
tp4126
as(I110
I87
tp4127
(lp4128
(I110
I88
tp4129
a(I110
I86
tp4130
as(I150
I84
tp4131
(lp4132
(I150
I85
tp4133
a(I150
I83
tp4134
as(I26
I46
tp4135
(lp4136
(I26
I47
tp4137
a(I26
I45
tp4138
as(I105
I98
tp4139
(lp4140
(I104
I98
tp4141
a(I106
I98
tp4142
as(I140
I26
tp4143
(lp4144
(I139
I26
tp4145
a(I141
I26
tp4146
as(I26
I81
tp4147
(lp4148
(I26
I82
tp4149
a(I26
I80
tp4150
as(I118
I6
tp4151
(lp4152
(I118
I7
tp4153
a(I118
I5
tp4154
as(I66
I56
tp4155
(lp4156
(I66
I57
tp4157
a(I66
I55
tp4158
as(I158
I7
tp4159
(lp4160
(I158
I8
tp4161
a(I158
I6
tp4162
as(I42
I49
tp4163
(lp4164
(I42
I50
tp4165
a(I42
I48
tp4166
as(I98
I50
tp4167
(lp4168
(I97
I50
tp4169
a(I99
I50
tp4170
as(I134
I28
tp4171
(lp4172
(I134
I29
tp4173
a(I134
I27
tp4174
as(I158
I150
tp4175
(lp4176
(I158
I151
tp4177
a(I158
I149
tp4178
as(I72
I158
tp4179
(lp4180
(I71
I158
tp4181
a(I73
I158
tp4182
as(I127
I50
tp4183
(lp4184
(I126
I50
tp4185
a(I128
I50
tp4186
as(I74
I138
tp4187
(lp4188
(I74
I139
tp4189
a(I74
I137
tp4190
as(I150
I111
tp4191
(lp4192
(I150
I112
tp4193
a(I150
I110
tp4194
as(I26
I41
tp4195
(lp4196
(I26
I42
tp4197
a(I26
I40
tp4198
as(I154
I98
tp4199
(lp4200
(I153
I98
tp4201
a(I155
I98
tp4202
as(I26
I88
tp4203
(lp4204
(I26
I89
tp4205
a(I26
I87
tp4206
as(I118
I25
tp4207
(lp4208
(I118
I26
tp4209
a(I118
I24
tp4210
as(I66
I51
tp4211
(lp4212
(I66
I52
tp4213
a(I66
I50
tp4214
as(I158
I14
tp4215
(lp4216
(I158
I15
tp4217
a(I158
I13
tp4218
as(I112
I98
tp4219
(lp4220
(I111
I98
tp4221
a(I113
I98
tp4222
as(I117
I134
tp4223
(lp4224
(I116
I134
tp4225
a(I118
I134
tp4226
as(I134
I23
tp4227
(lp4228
(I134
I24
tp4229
a(I134
I22
tp4230
as(I158
I153
tp4231
(lp4232
(I158
I154
tp4233
a(I158
I152
tp4234
as(I48
I158
tp4235
(lp4236
(I47
I158
tp4237
a(I49
I158
tp4238
as(I90
I98
tp4239
(lp4240
(I89
I98
tp4241
a(I91
I98
tp4242
as(I110
I97
tp4243
(lp4244
(I110
I98
tp4245
a(I110
I96
tp4246
as(I150
I102
tp4247
(lp4248
(I150
I103
tp4249
a(I150
I101
tp4250
as(I26
I48
tp4251
(lp4252
(I26
I49
tp4253
a(I26
I47
tp4254
as(I103
I2
tp4255
(lp4256
(I102
I2
tp4257
a(I104
I2
tp4258
as(I75
I158
tp4259
(lp4260
(I74
I158
tp4261
a(I76
I158
tp4262
as(I41
I2
tp4263
(lp4264
(I40
I2
tp4265
a(I42
I2
tp4266
as(I134
I127
tp4267
(lp4268
(I134
I128
tp4269
a(I134
I126
tp4270
as(I118
I16
tp4271
(lp4272
(I118
I17
tp4273
a(I118
I15
tp4274
as(I42
I35
tp4275
(lp4276
(I42
I36
tp4277
a(I42
I34
tp4278
as(I151
I50
tp4279
(lp4280
(I150
I50
tp4281
a(I152
I50
tp4282
as(I134
I14
tp4283
(lp4284
(I134
I15
tp4285
a(I134
I13
tp4286
as(I158
I128
tp4287
(lp4288
(I158
I129
tp4289
a(I158
I127
tp4290
as(I107
I158
tp4291
(lp4292
(I106
I158
tp4293
a(I108
I158
tp4294
as(I74
I131
tp4295
(lp4296
(I74
I132
tp4297
a(I74
I130
tp4298
as(I25
I26
tp4299
(lp4300
(I24
I26
tp4301
a(I26
I26
tp4302
as(I134
I153
tp4303
(lp4304
(I134
I154
tp4305
a(I134
I152
tp4306
as(I104
I50
tp4307
(lp4308
(I103
I50
tp4309
a(I105
I50
tp4310
as(I50
I50
tp4311
(lp4312
(I49
I50
tp4313
a(I51
I50
tp4314
as(I150
I121
tp4315
(lp4316
(I150
I122
tp4317
a(I150
I120
tp4318
as(I62
I2
tp4319
(lp4320
(I61
I2
tp4321
a(I63
I2
tp4322
as(I26
I59
tp4323
(lp4324
(I26
I60
tp4325
a(I26
I58
tp4326
as(I152
I2
tp4327
(lp4328
(I151
I2
tp4329
a(I153
I2
tp4330
as(I79
I50
tp4331
(lp4332
(I78
I50
tp4333
a(I80
I50
tp4334
as(I134
I118
tp4335
(lp4336
(I134
I119
tp4337
a(I134
I117
tp4338
as(I118
I107
tp4339
(lp4340
(I118
I108
tp4341
a(I118
I106
tp4342
as(I58
I98
tp4343
(lp4344
(I57
I98
tp4345
a(I59
I98
tp4346
a(I58
I99
tp4347
as(I128
I26
tp4348
(lp4349
(I127
I26
tp4350
a(I129
I26
tp4351
as(I42
I42
tp4352
(lp4353
(I42
I43
tp4354
a(I42
I41
tp4355
as(I82
I158
tp4356
(lp4357
(I81
I158
tp4358
a(I83
I158
tp4359
as(I158
I139
tp4360
(lp4361
(I158
I140
tp4362
a(I158
I138
tp4363
as(I126
I74
tp4364
(lp4365
(I125
I74
tp4366
a(I127
I74
tp4367
as(I83
I158
tp4368
(lp4369
(I82
I158
tp4370
a(I84
I158
tp4371
as(I134
I144
tp4372
(lp4373
(I134
I145
tp4374
a(I134
I143
tp4375
as(I72
I2
tp4376
(lp4377
(I71
I2
tp4378
a(I73
I2
tp4379
as(I150
I112
tp4380
(lp4381
(I150
I113
tp4382
a(I150
I111
tp4383
as(I64
I50
tp4384
(lp4385
(I63
I50
tp4386
a(I65
I50
tp4387
as(I93
I122
tp4388
(lp4389
(I92
I122
tp4390
a(I94
I122
tp4391
as(I134
I105
tp4392
(lp4393
(I134
I106
tp4394
a(I134
I104
tp4395
as(I118
I98
tp4396
(lp4397
(I117
I98
tp4398
a(I119
I98
tp4399
a(I118
I99
tp4400
as(I66
I28
tp4401
(lp4402
(I66
I29
tp4403
a(I66
I27
tp4404
as(I18
I155
tp4405
(lp4406
(I18
I156
tp4407
a(I18
I154
tp4408
as(I128
I50
tp4409
(lp4410
(I127
I50
tp4411
a(I129
I50
tp4412
as(I42
I21
tp4413
(lp4414
(I42
I22
tp4415
a(I42
I20
tp4416
as(I102
I123
tp4417
(lp4418
(I102
I124
tp4419
a(I102
I122
tp4420
as(I149
I26
tp4421
(lp4422
(I148
I26
tp4423
a(I150
I26
tp4424
as(I134
I139
tp4425
(lp4426
(I134
I140
tp4427
a(I134
I138
tp4428
as(I85
I2
tp4429
(lp4430
(I84
I2
tp4431
a(I86
I2
tp4432
as(I58
I100
tp4433
(lp4434
(I58
I101
tp4435
a(I58
I99
tp4436
as(I134
I158
tp4437
(lp4438
(I133
I158
tp4439
a(I135
I158
tp4440
a(I134
I157
tp4441
as(I115
I26
tp4442
(lp4443
(I114
I26
tp4444
a(I116
I26
tp4445
as(I118
I101
tp4446
(lp4447
(I118
I102
tp4448
a(I118
I100
tp4449
as(I18
I146
tp4450
(lp4451
(I18
I147
tp4452
a(I18
I145
tp4453
as(I114
I158
tp4454
(lp4455
(I113
I158
tp4456
a(I115
I158
tp4457
as(I42
I28
tp4458
(lp4459
(I42
I29
tp4460
a(I42
I27
tp4461
as(I66
I134
tp4462
(lp4463
(I65
I134
tp4464
a(I67
I134
tp4465
as(I32
I26
tp4466
(lp4467
(I31
I26
tp4468
a(I33
I26
tp4469
as(I40
I74
tp4470
(lp4471
(I39
I74
tp4472
a(I41
I74
tp4473
as(I134
I130
tp4474
(lp4475
(I134
I131
tp4476
a(I134
I129
tp4477
as(I157
I50
tp4478
(lp4479
(I156
I50
tp4480
a(I158
I50
tp4481
as(I73
I134
tp4482
(lp4483
(I72
I134
tp4484
a(I74
I134
tp4485
as(I58
I111
tp4486
(lp4487
(I58
I112
tp4488
a(I58
I110
tp4489
as(I150
I2
tp4490
(lp4491
(I149
I2
tp4492
a(I151
I2
tp4493
as(I25
I158
tp4494
(lp4495
(I24
I158
tp4496
a(I26
I158
tp4497
as(I118
I132
tp4498
(lp4499
(I118
I133
tp4500
a(I118
I131
tp4501
as(I42
I116
tp4502
(lp4503
(I42
I117
tp4504
a(I42
I115
tp4505
as(I118
I124
tp4506
(lp4507
(I118
I125
tp4508
a(I118
I123
tp4509
as(I102
I154
tp4510
(lp4511
(I102
I155
tp4512
a(I102
I153
tp4513
as(I18
I141
tp4514
(lp4515
(I18
I142
tp4516
a(I18
I140
tp4517
as(I44
I98
tp4518
(lp4519
(I43
I98
tp4520
a(I45
I98
tp4521
as(I42
I7
tp4522
(lp4523
(I42
I8
tp4524
a(I42
I6
tp4525
as(I116
I2
tp4526
(lp4527
(I115
I2
tp4528
a(I117
I2
tp4529
as(I42
I26
tp4530
(lp4531
(I41
I26
tp4532
a(I43
I26
tp4533
a(I42
I27
tp4534
a(I42
I25
tp4535
as(I102
I117
tp4536
(lp4537
(I102
I118
tp4538
a(I102
I116
tp4539
as(I70
I2
tp4540
(lp4541
(I69
I2
tp4542
a(I71
I2
tp4543
as(I42
I150
tp4544
(lp4545
(I42
I151
tp4546
a(I42
I149
tp4547
as(I134
I133
tp4548
(lp4549
(I134
I134
tp4550
a(I134
I132
tp4551
as(I139
I74
tp4552
(lp4553
(I138
I74
tp4554
a(I140
I74
tp4555
as(I58
I118
tp4556
(lp4557
(I58
I119
tp4558
a(I58
I117
tp4559
as(I21
I98
tp4560
(lp4561
(I20
I98
tp4562
a(I22
I98
tp4563
as(I26
I31
tp4564
(lp4565
(I26
I32
tp4566
a(I26
I30
tp4567
as(I83
I98
tp4568
(lp4569
(I82
I98
tp4570
a(I84
I98
tp4571
as(I42
I127
tp4572
(lp4573
(I42
I128
tp4574
a(I42
I126
tp4575
as(I134
I126
tp4576
(lp4577
(I134
I127
tp4578
a(I134
I125
tp4579
as(I118
I119
tp4580
(lp4581
(I118
I120
tp4582
a(I118
I118
tp4583
as(I102
I157
tp4584
(lp4585
(I102
I158
tp4586
a(I102
I156
tp4587
as(I18
I132
tp4588
(lp4589
(I18
I133
tp4590
a(I18
I131
tp4591
as(I113
I2
tp4592
(lp4593
(I112
I2
tp4594
a(I114
I2
tp4595
as(I59
I74
tp4596
(lp4597
(I58
I74
tp4598
a(I60
I74
tp4599
as(I42
I14
tp4600
(lp4601
(I42
I15
tp4602
a(I42
I13
tp4603
as(I102
I108
tp4604
(lp4605
(I102
I109
tp4606
a(I102
I107
tp4607
as(I67
I26
tp4608
(lp4609
(I66
I26
tp4610
a(I68
I26
tp4611
as(I18
I23
tp4612
(lp4613
(I18
I24
tp4614
a(I18
I22
tp4615
as(I92
I50
tp4616
(lp4617
(I91
I50
tp4618
a(I93
I50
tp4619
as(I42
I145
tp4620
(lp4621
(I42
I146
tp4622
a(I42
I144
tp4623
as(I29
I74
tp4624
(lp4625
(I28
I74
tp4626
a(I30
I74
tp4627
as(I128
I98
tp4628
(lp4629
(I127
I98
tp4630
a(I129
I98
tp4631
as(I58
I113
tp4632
(lp4633
(I58
I114
tp4634
a(I58
I112
tp4635
as(I150
I28
tp4636
(lp4637
(I150
I29
tp4638
a(I150
I27
tp4639
as(I26
I102
tp4640
(lp4641
(I26
I103
tp4642
a(I26
I101
tp4643
as(I42
I102
tp4644
(lp4645
(I42
I103
tp4646
a(I42
I101
tp4647
as(I66
I96
tp4648
(lp4649
(I66
I97
tp4650
a(I66
I95
tp4651
as(I158
I158
tp4652
(lp4653
(I157
I158
tp4654
a(I158
I157
tp4655
as(I153
I158
tp4656
(lp4657
(I152
I158
tp4658
a(I154
I158
tp4659
as(I42
I9
tp4660
(lp4661
(I42
I10
tp4662
a(I42
I8
tp4663
as(I102
I103
tp4664
(lp4665
(I102
I104
tp4666
a(I102
I102
tp4667
as(I89
I50
tp4668
(lp4669
(I88
I50
tp4670
a(I90
I50
tp4671
as(I18
I14
tp4672
(lp4673
(I18
I15
tp4674
a(I18
I13
tp4675
as(I74
I115
tp4676
(lp4677
(I74
I116
tp4678
a(I74
I114
tp4679
as(I114
I26
tp4680
(lp4681
(I113
I26
tp4682
a(I115
I26
tp4683
as(I132
I26
tp4684
(lp4685
(I131
I26
tp4686
a(I133
I26
tp4687
as(I43
I26
tp4688
(lp4689
(I42
I26
tp4690
a(I44
I26
tp4691
as(I140
I74
tp4692
(lp4693
(I139
I74
tp4694
a(I141
I74
tp4695
as(I72
I50
tp4696
(lp4697
(I71
I50
tp4698
a(I73
I50
tp4699
as(I58
I120
tp4700
(lp4701
(I58
I121
tp4702
a(I58
I119
tp4703
as(I22
I98
tp4704
(lp4705
(I21
I98
tp4706
a(I23
I98
tp4707
as(I26
I97
tp4708
(lp4709
(I26
I98
tp4710
a(I26
I96
tp4711
as(I99
I158
tp4712
(lp4713
(I98
I158
tp4714
a(I100
I158
tp4715
as(I98
I2
tp4716
(lp4717
(I97
I2
tp4718
a(I99
I2
tp4719
as(I153
I98
tp4720
(lp4721
(I152
I98
tp4722
a(I154
I98
tp4723
as(I64
I158
tp4724
(lp4725
(I63
I158
tp4726
a(I65
I158
tp4727
as(I27
I2
tp4728
(lp4729
(I26
I2
tp4730
a(I28
I2
tp4731
as(I102
I143
tp4732
(lp4733
(I102
I144
tp4734
a(I102
I142
tp4735
as(I111
I98
tp4736
(lp4737
(I110
I98
tp4738
a(I112
I98
tp4739
as(I60
I74
tp4740
(lp4741
(I59
I74
tp4742
a(I61
I74
tp4743
as(I49
I98
tp4744
(lp4745
(I48
I98
tp4746
a(I50
I98
tp4747
as(I18
I9
tp4748
(lp4749
(I18
I10
tp4750
a(I18
I8
tp4751
as(I74
I122
tp4752
(lp4753
(I75
I122
tp4754
a(I74
I123
tp4755
a(I74
I121
tp4756
as(I42
I131
tp4757
(lp4758
(I42
I132
tp4759
a(I42
I130
tp4760
as(I154
I50
tp4761
(lp4762
(I153
I50
tp4763
a(I155
I50
tp4764
as(I70
I134
tp4765
(lp4766
(I69
I134
tp4767
a(I71
I134
tp4768
as(I58
I3
tp4769
(lp4770
(I58
I4
tp4771
a(I58
I2
tp4772
as(I150
I46
tp4773
(lp4774
(I150
I47
tp4775
a(I150
I45
tp4776
as(I26
I104
tp4777
(lp4778
(I26
I105
tp4779
a(I26
I103
tp4780
as(I123
I158
tp4781
(lp4782
(I122
I158
tp4783
a(I124
I158
tp4784
as(I42
I104
tp4785
(lp4786
(I42
I105
tp4787
a(I42
I103
tp4788
as(I119
I74
tp4789
(lp4790
(I118
I74
tp4791
a(I120
I74
tp4792
as(I102
I134
tp4793
(lp4794
(I103
I134
tp4795
a(I102
I135
tp4796
a(I102
I133
tp4797
as(I40
I158
tp4798
(lp4799
(I39
I158
tp4800
a(I41
I158
tp4801
as(I151
I122
tp4802
(lp4803
(I150
I122
tp4804
a(I152
I122
tp4805
as(I74
I101
tp4806
(lp4807
(I74
I102
tp4808
a(I74
I100
tp4809
as(I113
I134
tp4810
(lp4811
(I112
I134
tp4812
a(I114
I134
tp4813
as(I42
I138
tp4814
(lp4815
(I42
I139
tp4816
a(I42
I137
tp4817
as(I36
I158
tp4818
(lp4819
(I35
I158
tp4820
a(I37
I158
tp4821
as(I67
I158
tp4822
(lp4823
(I66
I158
tp4824
a(I68
I158
tp4825
as(I110
I32
tp4826
(lp4827
(I110
I33
tp4828
a(I110
I31
tp4829
as(I58
I10
tp4830
(lp4831
(I58
I11
tp4832
a(I58
I9
tp4833
as(I150
I33
tp4834
(lp4835
(I150
I34
tp4836
a(I150
I32
tp4837
as(I26
I115
tp4838
(lp4839
(I26
I116
tp4840
a(I26
I114
tp4841
as(I125
I50
tp4842
(lp4843
(I124
I50
tp4844
a(I126
I50
tp4845
as(I152
I122
tp4846
(lp4847
(I151
I122
tp4848
a(I153
I122
tp4849
as(I151
I2
tp4850
(lp4851
(I150
I2
tp4852
a(I152
I2
tp4853
as(I66
I77
tp4854
(lp4855
(I66
I78
tp4856
a(I66
I76
tp4857
as(I87
I122
tp4858
(lp4859
(I86
I122
tp4860
a(I88
I122
tp4861
as(I74
I155
tp4862
(lp4863
(I74
I156
tp4864
a(I74
I154
tp4865
as(I96
I98
tp4866
(lp4867
(I95
I98
tp4868
a(I97
I98
tp4869
as(I50
I98
tp4870
(lp4871
(I49
I98
tp4872
a(I51
I98
tp4873
as(I18
I123
tp4874
(lp4875
(I18
I124
tp4876
a(I18
I122
tp4877
as(I74
I108
tp4878
(lp4879
(I74
I109
tp4880
a(I74
I107
tp4881
as(I95
I158
tp4882
(lp4883
(I94
I158
tp4884
a(I96
I158
tp4885
as(I150
I73
tp4886
(lp4887
(I150
I74
tp4888
a(I150
I72
tp4889
as(I134
I50
tp4890
(lp4891
(I133
I50
tp4892
a(I134
I49
tp4893
as(I71
I2
tp4894
(lp4895
(I70
I2
tp4896
a(I72
I2
tp4897
as(I110
I43
tp4898
(lp4899
(I110
I44
tp4900
a(I110
I42
tp4901
as(I58
I21
tp4902
(lp4903
(I58
I22
tp4904
a(I58
I20
tp4905
as(I150
I56
tp4906
(lp4907
(I150
I57
tp4908
a(I150
I55
tp4909
as(I26
I122
tp4910
(lp4911
(I25
I122
tp4912
a(I27
I122
tp4913
a(I26
I121
tp4914
as(I88
I122
tp4915
(lp4916
(I87
I122
tp4917
a(I89
I122
tp4918
as(I58
I132
tp4919
(lp4920
(I58
I133
tp4921
a(I58
I131
tp4922
as(I93
I158
tp4923
(lp4924
(I92
I158
tp4925
a(I94
I158
tp4926
as(I134
I49
tp4927
(lp4928
(I134
I50
tp4929
a(I134
I48
tp4930
as(I66
I68
tp4931
(lp4932
(I66
I69
tp4933
a(I66
I67
tp4934
as(I117
I98
tp4935
(lp4936
(I116
I98
tp4937
a(I118
I98
tp4938
as(I74
I151
tp4939
(lp4940
(I74
I152
tp4941
a(I74
I150
tp4942
as(I150
I64
tp4943
(lp4944
(I150
I65
tp4945
a(I150
I63
tp4946
as(I118
I131
tp4947
(lp4948
(I118
I132
tp4949
a(I118
I130
tp4950
as(I110
I50
tp4951
(lp4952
(I109
I50
tp4953
a(I111
I50
tp4954
a(I110
I51
tp4955
a(I110
I49
tp4956
as(I148
I158
tp4957
(lp4958
(I147
I158
tp4959
a(I149
I158
tp4960
as(I59
I134
tp4961
(lp4962
(I58
I134
tp4963
a(I60
I134
tp4964
as(I150
I51
tp4965
(lp4966
(I150
I52
tp4967
a(I150
I50
tp4968
as(I26
I69
tp4969
(lp4970
(I26
I70
tp4971
a(I26
I68
tp4972
as(I118
I50
tp4973
(lp4974
(I117
I50
tp4975
a(I119
I50
tp4976
as(I66
I44
tp4977
(lp4978
(I66
I45
tp4979
a(I66
I43
tp4980
as(I158
I19
tp4981
(lp4982
(I158
I20
tp4983
a(I158
I18
tp4984
as(I134
I40
tp4985
(lp4986
(I134
I41
tp4987
a(I134
I39
tp4988
as(I66
I95
tp4989
(lp4990
(I66
I96
tp4991
a(I66
I94
tp4992
as(I111
I134
tp4993
(lp4994
(I110
I134
tp4995
a(I112
I134
tp4996
as(I77
I50
tp4997
(lp4998
(I76
I50
tp4999
a(I78
I50
tp5000
as(I18
I26
tp5001
(lp5002
(I19
I26
tp5003
a(I18
I25
tp5004
as(I157
I122
tp5005
(lp5006
(I156
I122
tp5007
a(I158
I122
tp5008
as(I110
I74
tp5009
(lp5010
(I111
I74
tp5011
a(I110
I75
tp5012
a(I110
I73
tp5013
as(I40
I2
tp5014
(lp5015
(I39
I2
tp5016
a(I41
I2
tp5017
as(I39
I122
tp5018
(lp5019
(I38
I122
tp5020
a(I40
I122
tp5021
as(I150
I91
tp5022
(lp5023
(I150
I92
tp5024
a(I150
I90
tp5025
as(I124
I98
tp5026
(lp5027
(I123
I98
tp5028
a(I125
I98
tp5029
as(I110
I53
tp5030
(lp5031
(I110
I54
tp5032
a(I110
I52
tp5033
as(I26
I76
tp5034
(lp5035
(I26
I77
tp5036
a(I26
I75
tp5037
as(I66
I39
tp5038
(lp5039
(I66
I40
tp5040
a(I66
I38
tp5041
as(I158
I26
tp5042
(lp5043
(I157
I26
tp5044
a(I158
I25
tp5045
as(I24
I26
tp5046
(lp5047
(I23
I26
tp5048
a(I25
I26
tp5049
as(I134
I35
tp5050
(lp5051
(I134
I36
tp5052
a(I134
I34
tp5053
as(I137
I158
tp5054
(lp5055
(I136
I158
tp5056
a(I138
I158
tp5057
as(I66
I86
tp5058
(lp5059
(I66
I87
tp5060
a(I66
I85
tp5061
as(I40
I122
tp5062
(lp5063
(I39
I122
tp5064
a(I41
I122
tp5065
as(I148
I2
tp5066
(lp5067
(I147
I2
tp5068
a(I149
I2
tp5069
as(I99
I2
tp5070
(lp5071
(I98
I2
tp5072
a(I100
I2
tp5073
as(I74
I153
tp5074
(lp5075
(I74
I154
tp5076
a(I74
I152
tp5077
as(I150
I82
tp5078
(lp5079
(I150
I83
tp5080
a(I150
I81
tp5081
as(I26
I36
tp5082
(lp5083
(I26
I37
tp5084
a(I26
I35
tp5085
as(I18
I152
tp5086
(lp5087
(I18
I153
tp5088
a(I18
I151
tp5089
as(I50
I158
tp5090
(lp5091
(I49
I158
tp5092
a(I51
I158
tp5093
as(I110
I60
tp5094
(lp5095
(I110
I61
tp5096
a(I110
I59
tp5097
as(I26
I87
tp5098
(lp5099
(I26
I88
tp5100
a(I26
I86
tp5101
as(I118
I12
tp5102
(lp5103
(I118
I13
tp5104
a(I118
I11
tp5105
as(I155
I50
tp5106
(lp5107
(I154
I50
tp5108
a(I156
I50
tp5109
as(I66
I62
tp5110
(lp5111
(I66
I63
tp5112
a(I66
I61
tp5113
as(I134
I26
tp5114
(lp5115
(I133
I26
tp5116
a(I135
I26
tp5117
a(I134
I27
tp5118
a(I134
I25
tp5119
as(I127
I158
tp5120
(lp5121
(I126
I158
tp5122
a(I128
I158
tp5123
as(I66
I81
tp5124
(lp5125
(I66
I82
tp5126
a(I66
I80
tp5127
as(I70
I50
tp5128
(lp5129
(I69
I50
tp5130
a(I71
I50
tp5131
as(I131
I74
tp5132
(lp5133
(I130
I74
tp5134
a(I132
I74
tp5135
as(I109
I158
tp5136
(lp5137
(I108
I158
tp5138
a(I110
I158
tp5139
as(I110
I84
tp5140
(lp5141
(I110
I85
tp5142
a(I110
I83
tp5143
as(I21
I50
tp5144
(lp5145
(I20
I50
tp5146
a(I22
I50
tp5147
as(I150
I85
tp5148
(lp5149
(I150
I86
tp5150
a(I150
I84
tp5151
as(I26
I47
tp5152
(lp5153
(I26
I48
tp5154
a(I26
I46
tp5155
as(I158
I134
tp5156
(lp5157
(I158
I135
tp5158
a(I158
I133
tp5159
as(I26
I94
tp5160
(lp5161
(I26
I95
tp5162
a(I26
I93
tp5163
as(I118
I7
tp5164
(lp5165
(I118
I8
tp5166
a(I118
I6
tp5167
as(I66
I57
tp5168
(lp5169
(I66
I58
tp5170
a(I66
I56
tp5171
as(I122
I74
tp5172
(lp5173
(I121
I74
tp5174
a(I123
I74
tp5175
as(I158
I4
tp5176
(lp5177
(I158
I5
tp5178
a(I158
I3
tp5179
as(I51
I74
tp5180
(lp5181
(I50
I74
tp5182
a(I52
I74
tp5183
as(I148
I26
tp5184
(lp5185
(I147
I26
tp5186
a(I149
I26
tp5187
as(I59
I26
tp5188
(lp5189
(I58
I26
tp5190
a(I60
I26
tp5191
as(I134
I29
tp5192
(lp5193
(I134
I30
tp5194
a(I134
I28
tp5195
as(I84
I2
tp5196
(lp5197
(I83
I2
tp5198
a(I85
I2
tp5199
as(I158
I151
tp5200
(lp5201
(I158
I152
tp5202
a(I158
I150
tp5203
as(I38
I2
tp5204
(lp5205
(I37
I2
tp5206
a(I39
I2
tp5207
as(I110
I95
tp5208
(lp5209
(I110
I96
tp5210
a(I110
I94
tp5211
as(I150
I108
tp5212
(lp5213
(I150
I109
tp5214
a(I150
I107
tp5215
as(I43
I98
tp5216
(lp5217
(I42
I98
tp5218
a(I44
I98
tp5219
as(I26
I54
tp5220
(lp5221
(I26
I55
tp5222
a(I26
I53
tp5223
as(I26
I89
tp5224
(lp5225
(I26
I90
tp5226
a(I26
I88
tp5227
as(I137
I122
tp5228
(lp5229
(I136
I122
tp5230
a(I138
I122
tp5231
as(I66
I48
tp5232
(lp5233
(I66
I49
tp5234
a(I66
I47
tp5235
as(I158
I15
tp5236
(lp5237
(I158
I16
tp5238
a(I158
I14
tp5239
as(I135
I26
tp5240
(lp5241
(I134
I26
tp5242
a(I136
I26
tp5243
as(I19
I122
tp5244
(lp5245
(I18
I122
tp5246
a(I20
I122
tp5247
as(I81
I2
tp5248
(lp5249
(I80
I2
tp5250
a(I82
I2
tp5251
as(I134
I20
tp5252
(lp5253
(I134
I21
tp5254
a(I134
I19
tp5255
as(I135
I158
tp5256
(lp5257
(I134
I158
tp5258
a(I136
I158
tp5259
as(I106
I26
tp5260
(lp5261
(I105
I26
tp5262
a(I107
I26
tp5263
as(I72
I134
tp5264
(lp5265
(I71
I134
tp5266
a(I73
I134
tp5267
as(I35
I26
tp5268
(lp5269
(I34
I26
tp5270
a(I36
I26
tp5271
as(I110
I86
tp5272
(lp5273
(I110
I87
tp5274
a(I110
I85
tp5275
as(I132
I74
tp5276
(lp5277
(I131
I74
tp5278
a(I133
I74
tp5279
as(I150
I103
tp5280
(lp5281
(I150
I104
tp5282
a(I150
I102
tp5283
as(I26
I49
tp5284
(lp5285
(I26
I50
tp5286
a(I26
I48
tp5287
as(I36
I74
tp5288
(lp5289
(I35
I74
tp5290
a(I37
I74
tp5291
as(I134
I124
tp5292
(lp5293
(I134
I125
tp5294
a(I134
I123
tp5295
as(I118
I17
tp5296
(lp5297
(I118
I18
tp5298
a(I118
I16
tp5299
as(I52
I74
tp5300
(lp5301
(I51
I74
tp5302
a(I53
I74
tp5303
as(I111
I50
tp5304
(lp5305
(I110
I50
tp5306
a(I112
I50
tp5307
as(I42
I32
tp5308
(lp5309
(I42
I33
tp5310
a(I42
I31
tp5311
as(I134
I15
tp5312
(lp5313
(I134
I16
tp5314
a(I134
I14
tp5315
as(I119
I50
tp5316
(lp5317
(I118
I50
tp5318
a(I120
I50
tp5319
as(I158
I129
tp5320
(lp5321
(I158
I130
tp5322
a(I158
I128
tp5323
as(I146
I2
tp5324
(lp5325
(I145
I2
tp5326
a(I147
I2
tp5327
as(I82
I26
tp5328
(lp5329
(I81
I26
tp5330
a(I83
I26
tp5331
as(I115
I158
tp5332
(lp5333
(I114
I158
tp5334
a(I116
I158
tp5335
as(I26
I56
tp5336
(lp5337
(I26
I57
tp5338
a(I26
I55
tp5339
as(I112
I2
tp5340
(lp5341
(I111
I2
tp5342
a(I113
I2
tp5343
as(I134
I119
tp5344
(lp5345
(I134
I120
tp5346
a(I134
I118
tp5347
as(I118
I104
tp5348
(lp5349
(I118
I105
tp5350
a(I118
I103
tp5351
as(I66
I2
tp5352
(lp5353
(I65
I2
tp5354
a(I67
I2
tp5355
as(I20
I122
tp5356
(lp5357
(I19
I122
tp5358
a(I21
I122
tp5359
as(I42
I43
tp5360
(lp5361
(I42
I44
tp5362
a(I42
I42
tp5363
as(I134
I6
tp5364
(lp5365
(I134
I7
tp5366
a(I134
I5
tp5367
as(I158
I136
tp5368
(lp5369
(I158
I137
tp5370
a(I158
I135
tp5371
as(I134
I145
tp5372
(lp5373
(I134
I146
tp5374
a(I134
I144
tp5375
as(I150
I113
tp5376
(lp5377
(I150
I114
tp5378
a(I150
I112
tp5379
as(I134
I110
tp5380
(lp5381
(I134
I111
tp5382
a(I134
I109
tp5383
as(I118
I99
tp5384
(lp5385
(I118
I100
tp5386
a(I118
I98
tp5387
as(I66
I29
tp5388
(lp5389
(I66
I30
tp5390
a(I66
I28
tp5391
as(I88
I50
tp5392
(lp5393
(I87
I50
tp5394
a(I89
I50
tp5395
as(I74
I147
tp5396
(lp5397
(I74
I148
tp5398
a(I74
I146
tp5399
as(I42
I36
tp5400
(lp5401
(I42
I37
tp5402
a(I42
I35
tp5403
as(I42
I18
tp5404
(lp5405
(I42
I19
tp5406
a(I42
I17
tp5407
as(I25
I122
tp5408
(lp5409
(I24
I122
tp5410
a(I26
I122
tp5411
as(I101
I122
tp5412
(lp5413
(I100
I122
tp5414
a(I102
I122
tp5415
as(I102
I120
tp5416
(lp5417
(I102
I121
tp5418
a(I102
I119
tp5419
as(I74
I158
tp5420
(lp5421
(I73
I158
tp5422
a(I75
I158
tp5423
a(I74
I157
tp5424
as(I134
I136
tp5425
(lp5426
(I134
I137
tp5427
a(I134
I135
tp5428
as(I63
I50
tp5429
(lp5430
(I62
I50
tp5431
a(I64
I50
tp5432
as(I71
I50
tp5433
(lp5434
(I70
I50
tp5435
a(I72
I50
tp5436
as(I58
I101
tp5437
(lp5438
(I58
I102
tp5439
a(I58
I100
tp5440
as(I118
I122
tp5441
(lp5442
(I118
I123
tp5443
a(I118
I121
tp5444
as(I18
I147
tp5445
(lp5446
(I18
I148
tp5447
a(I18
I146
tp5448
as(I42
I29
tp5449
(lp5450
(I42
I30
tp5451
a(I42
I28
tp5452
as(I102
I115
tp5453
(lp5454
(I102
I116
tp5455
a(I102
I114
tp5456
as(I134
I131
tp5457
(lp5458
(I134
I132
tp5459
a(I134
I130
tp5460
as(I122
I158
tp5461
(lp5462
(I121
I158
tp5463
a(I123
I158
tp5464
as(I110
I2
tp5465
(lp5466
(I109
I2
tp5467
a(I111
I2
tp5468
as(I58
I108
tp5469
(lp5470
(I58
I109
tp5471
a(I58
I107
tp5472
as(I39
I2
tp5473
(lp5474
(I38
I2
tp5475
a(I40
I2
tp5476
as(I42
I117
tp5477
(lp5478
(I42
I118
tp5479
a(I42
I116
tp5480
as(I61
I98
tp5481
(lp5482
(I60
I98
tp5483
a(I62
I98
tp5484
as(I118
I125
tp5485
(lp5486
(I118
I126
tp5487
a(I118
I124
tp5488
as(I102
I155
tp5489
(lp5490
(I102
I156
tp5491
a(I102
I154
tp5492
as(I123
I98
tp5493
(lp5494
(I122
I98
tp5495
a(I124
I98
tp5496
as(I18
I138
tp5497
(lp5498
(I18
I139
tp5499
a(I18
I137
tp5500
as(I112
I134
tp5501
(lp5502
(I111
I134
tp5503
a(I113
I134
tp5504
as(I77
I98
tp5505
(lp5506
(I76
I98
tp5507
a(I78
I98
tp5508
as(I42
I4
tp5509
(lp5510
(I42
I5
tp5511
a(I42
I3
tp5512
as(I43
I158
tp5513
(lp5514
(I42
I158
tp5515
a(I44
I158
tp5516
as(I102
I106
tp5517
(lp5518
(I102
I107
tp5519
a(I102
I105
tp5520
as(I42
I151
tp5521
(lp5522
(I42
I152
tp5523
a(I42
I150
tp5524
as(I124
I50
tp5525
(lp5526
(I123
I50
tp5527
a(I125
I50
tp5528
as(I58
I119
tp5529
(lp5530
(I58
I120
tp5531
a(I58
I118
tp5532
as(I150
I26
tp5533
(lp5534
(I149
I26
tp5535
a(I151
I26
tp5536
a(I150
I27
tp5537
as(I133
I50
tp5538
(lp5539
(I132
I50
tp5540
a(I134
I50
tp5541
as(I26
I28
tp5542
(lp5543
(I26
I29
tp5544
a(I26
I27
tp5545
as(I42
I124
tp5546
(lp5547
(I42
I125
tp5548
a(I42
I123
tp5549
as(I24
I50
tp5550
(lp5551
(I23
I50
tp5552
a(I25
I50
tp5553
as(I118
I116
tp5554
(lp5555
(I118
I117
tp5556
a(I118
I115
tp5557
as(I102
I146
tp5558
(lp5559
(I102
I147
tp5560
a(I102
I145
tp5561
as(I125
I158
tp5562
(lp5563
(I124
I158
tp5564
a(I126
I158
tp5565
as(I18
I133
tp5566
(lp5567
(I18
I134
tp5568
a(I18
I132
tp5569
as(I42
I15
tp5570
(lp5571
(I42
I16
tp5572
a(I42
I14
tp5573
as(I102
I109
tp5574
(lp5575
(I102
I110
tp5576
a(I102
I108
tp5577
as(I18
I20
tp5578
(lp5579
(I18
I21
tp5580
a(I18
I19
tp5581
as(I42
I158
tp5582
(lp5583
(I41
I158
tp5584
a(I43
I158
tp5585
a(I42
I157
tp5586
as(I121
I50
tp5587
(lp5588
(I120
I50
tp5589
a(I122
I50
tp5590
as(I147
I2
tp5591
(lp5592
(I146
I2
tp5593
a(I148
I2
tp5594
as(I58
I126
tp5595
(lp5596
(I58
I127
tp5597
a(I58
I125
tp5598
as(I150
I29
tp5599
(lp5600
(I150
I30
tp5601
a(I150
I28
tp5602
as(I26
I103
tp5603
(lp5604
(I26
I104
tp5605
a(I26
I102
tp5606
as(I46
I98
tp5607
(lp5608
(I45
I98
tp5609
a(I47
I98
tp5610
as(I42
I103
tp5611
(lp5612
(I42
I104
tp5613
a(I42
I102
tp5614
as(I62
I98
tp5615
(lp5616
(I61
I98
tp5617
a(I63
I98
tp5618
as(I66
I97
tp5619
(lp5620
(I66
I98
tp5621
a(I66
I96
tp5622
as(I121
I74
tp5623
(lp5624
(I120
I74
tp5625
a(I122
I74
tp5626
as(I102
I100
tp5627
(lp5628
(I102
I101
tp5629
a(I102
I99
tp5630
as(I67
I2
tp5631
(lp5632
(I66
I2
tp5633
a(I68
I2
tp5634
as(I18
I15
tp5635
(lp5636
(I18
I16
tp5637
a(I18
I14
tp5638
as(I74
I112
tp5639
(lp5640
(I74
I113
tp5641
a(I74
I111
tp5642
as(I38
I74
tp5643
(lp5644
(I37
I74
tp5645
a(I39
I74
tp5646
as(I21
I2
tp5647
(lp5648
(I20
I2
tp5649
a(I22
I2
tp5650
as(I42
I153
tp5651
(lp5652
(I42
I154
tp5653
a(I42
I152
tp5654
as(I54
I74
tp5655
(lp5656
(I53
I74
tp5657
a(I55
I74
tp5658
as(I58
I121
tp5659
(lp5660
(I58
I122
tp5661
a(I58
I120
tp5662
as(I151
I158
tp5663
(lp5664
(I150
I158
tp5665
a(I152
I158
tp5666
as(I26
I110
tp5667
(lp5668
(I26
I111
tp5669
a(I26
I109
tp5670
as(I122
I26
tp5671
(lp5672
(I121
I26
tp5673
a(I123
I26
tp5674
as(I51
I26
tp5675
(lp5676
(I50
I26
tp5677
a(I52
I26
tp5678
as(I76
I50
tp5679
(lp5680
(I75
I50
tp5681
a(I77
I50
tp5682
as(I42
I110
tp5683
(lp5684
(I42
I111
tp5685
a(I42
I109
tp5686
as(I102
I140
tp5687
(lp5688
(I102
I141
tp5689
a(I102
I139
tp5690
as(I58
I50
tp5691
(lp5692
(I57
I50
tp5693
a(I59
I50
tp5694
as(I18
I6
tp5695
(lp5696
(I18
I7
tp5697
a(I18
I5
tp5698
as(I74
I123
tp5699
(lp5700
(I74
I124
tp5701
a(I74
I122
tp5702
as(I42
I128
tp5703
(lp5704
(I42
I129
tp5705
a(I42
I127
tp5706
as(I110
I30
tp5707
(lp5708
(I110
I31
tp5709
a(I110
I29
tp5710
as(I22
I122
tp5711
(lp5712
(I21
I122
tp5713
a(I23
I122
tp5714
as(I150
I47
tp5715
(lp5716
(I150
I48
tp5717
a(I150
I46
tp5718
as(I26
I105
tp5719
(lp5720
(I26
I106
tp5721
a(I26
I104
tp5722
as(I73
I50
tp5723
(lp5724
(I72
I50
tp5725
a(I74
I50
tp5726
as(I42
I105
tp5727
(lp5728
(I42
I106
tp5729
a(I42
I104
tp5730
as(I98
I26
tp5731
(lp5732
(I97
I26
tp5733
a(I99
I26
tp5734
as(I61
I134
tp5735
(lp5736
(I60
I134
tp5737
a(I62
I134
tp5738
as(I27
I26
tp5739
(lp5740
(I26
I26
tp5741
a(I28
I26
tp5742
as(I102
I135
tp5743
(lp5744
(I102
I136
tp5745
a(I102
I134
tp5746
as(I35
I74
tp5747
(lp5748
(I34
I74
tp5749
a(I36
I74
tp5750
as(I74
I154
tp5751
(lp5752
(I74
I155
tp5753
a(I74
I153
tp5754
as(I120
I98
tp5755
(lp5756
(I119
I98
tp5757
a(I121
I98
tp5758
as(I146
I74
tp5759
(lp5760
(I145
I74
tp5761
a(I147
I74
tp5762
as(I42
I139
tp5763
(lp5764
(I42
I140
tp5765
a(I42
I138
tp5766
as(I110
I33
tp5767
(lp5768
(I110
I34
tp5769
a(I110
I32
tp5770
as(I58
I11
tp5771
(lp5772
(I58
I12
tp5773
a(I58
I10
tp5774
as(I150
I38
tp5775
(lp5776
(I150
I39
tp5777
a(I150
I37
tp5778
as(I26
I112
tp5779
(lp5780
(I26
I113
tp5781
a(I26
I111
tp5782
as(I112
I74
tp5783
(lp5784
(I111
I74
tp5785
a(I113
I74
tp5786
as(I111
I2
tp5787
(lp5788
(I110
I2
tp5789
a(I112
I2
tp5790
as(I66
I74
tp5791
(lp5792
(I65
I74
tp5793
a(I66
I75
tp5794
a(I66
I73
tp5795
as(I108
I158
tp5796
(lp5797
(I107
I158
tp5798
a(I109
I158
tp5799
as(I74
I26
tp5800
(lp5801
(I73
I26
tp5802
a(I75
I26
tp5803
as(I20
I50
tp5804
(lp5805
(I19
I50
tp5806
a(I21
I50
tp5807
as(I26
I2
tp5808
(lp5809
(I25
I2
tp5810
a(I27
I2
tp5811
as(I74
I109
tp5812
(lp5813
(I74
I110
tp5814
a(I74
I108
tp5815
as(I95
I122
tp5816
(lp5817
(I94
I122
tp5818
a(I96
I122
tp5819
as(I150
I78
tp5820
(lp5821
(I150
I79
tp5822
a(I150
I77
tp5823
as(I67
I134
tp5824
(lp5825
(I66
I134
tp5826
a(I68
I134
tp5827
as(I110
I40
tp5828
(lp5829
(I110
I41
tp5830
a(I110
I39
tp5831
as(I58
I18
tp5832
(lp5833
(I58
I19
tp5834
a(I58
I17
tp5835
as(I150
I57
tp5836
(lp5837
(I150
I58
tp5838
a(I150
I56
tp5839
as(I66
I158
tp5840
(lp5841
(I65
I158
tp5842
a(I67
I158
tp5843
as(I143
I74
tp5844
(lp5845
(I142
I74
tp5846
a(I144
I74
tp5847
as(I58
I133
tp5848
(lp5849
(I58
I134
tp5850
a(I58
I132
tp5851
as(I151
I26
tp5852
(lp5853
(I150
I26
tp5854
a(I152
I26
tp5855
as(I66
I69
tp5856
(lp5857
(I66
I70
tp5858
a(I66
I68
tp5859
as(I34
I122
tp5860
(lp5861
(I33
I122
tp5862
a(I35
I122
tp5863
as(I96
I122
tp5864
(lp5865
(I95
I122
tp5866
a(I97
I122
tp5867
as(I25
I50
tp5868
(lp5869
(I24
I50
tp5870
a(I26
I50
tp5871
as(I110
I89
tp5872
(lp5873
(I110
I90
tp5874
a(I110
I88
tp5875
as(I118
I9
tp5876
(lp5877
(I118
I10
tp5878
a(I118
I8
tp5879
as(I50
I26
tp5880
(lp5881
(I49
I26
tp5882
a(I51
I26
tp5883
as(I110
I64
tp5884
(lp5885
(I110
I65
tp5886
a(I110
I63
tp5887
as(I150
I65
tp5888
(lp5889
(I150
I66
tp5890
a(I150
I64
tp5891
as(I118
I128
tp5892
(lp5893
(I118
I129
tp5894
a(I118
I127
tp5895
as(I63
I74
tp5896
(lp5897
(I62
I74
tp5898
a(I64
I74
tp5899
as(I110
I51
tp5900
(lp5901
(I110
I52
tp5902
a(I110
I50
tp5903
as(I150
I48
tp5904
(lp5905
(I150
I49
tp5906
a(I150
I47
tp5907
as(I26
I66
tp5908
(lp5909
(I26
I67
tp5910
a(I26
I65
tp5911
as(I66
I45
tp5912
(lp5913
(I66
I46
tp5914
a(I66
I44
tp5915
as(I158
I16
tp5916
(lp5917
(I158
I17
tp5918
a(I158
I15
tp5919
as(I34
I2
tp5920
(lp5921
(I33
I2
tp5922
a(I35
I2
tp5923
as(I156
I158
tp5924
(lp5925
(I155
I158
tp5926
a(I157
I158
tp5927
as(I134
I41
tp5928
(lp5929
(I134
I42
tp5930
a(I134
I40
tp5931
as(I66
I92
tp5932
(lp5933
(I66
I93
tp5934
a(I66
I91
tp5935
as(I109
I26
tp5936
(lp5937
(I108
I26
tp5938
a(I110
I26
tp5939
as(I55
I98
tp5940
(lp5941
(I54
I98
tp5942
a(I56
I98
tp5943
as(I71
I98
tp5944
(lp5945
(I70
I98
tp5946
a(I72
I98
tp5947
as(I110
I75
tp5948
(lp5949
(I110
I76
tp5950
a(I110
I74
tp5951
as(I150
I88
tp5952
(lp5953
(I150
I89
tp5954
a(I150
I87
tp5955
as(I130
I98
tp5956
(lp5957
(I129
I98
tp5958
a(I131
I98
tp5959
as(I56
I26
tp5960
(lp5961
(I55
I26
tp5962
a(I57
I26
tp5963
as(I110
I58
tp5964
(lp5965
(I110
I59
tp5966
a(I110
I57
tp5967
as(I93
I2
tp5968
(lp5969
(I92
I2
tp5970
a(I94
I2
tp5971
as(I59
I158
tp5972
(lp5973
(I58
I158
tp5974
a(I60
I158
tp5975
as(I26
I77
tp5976
(lp5977
(I26
I78
tp5978
a(I26
I76
tp5979
as(I118
I10
tp5980
(lp5981
(I118
I11
tp5982
a(I118
I9
tp5983
as(I66
I36
tp5984
(lp5985
(I66
I37
tp5986
a(I66
I35
tp5987
as(I134
I32
tp5988
(lp5989
(I134
I33
tp5990
a(I134
I31
tp5991
as(I66
I87
tp5992
(lp5993
(I66
I88
tp5994
a(I66
I86
tp5995
as(I102
I50
tp5996
(lp5997
(I101
I50
tp5998
a(I103
I50
tp5999
as(I74
I144
tp6000
(lp6001
(I74
I145
tp6002
a(I74
I143
tp6003
as(I74
I134
tp6004
(lp6005
(I73
I134
tp6006
a(I74
I135
tp6007
a(I74
I133
tp6008
as(I150
I83
tp6009
(lp6010
(I150
I84
tp6011
a(I150
I82
tp6012
as(I26
I37
tp6013
(lp6014
(I26
I38
tp6015
a(I26
I36
tp6016
as(I146
I26
tp6017
(lp6018
(I145
I26
tp6019
a(I147
I26
tp6020
as(I110
I61
tp6021
(lp6022
(I110
I62
tp6023
a(I110
I60
tp6024
as(I72
I98
tp6025
(lp6026
(I71
I98
tp6027
a(I73
I98
tp6028
as(I115
I50
tp6029
(lp6030
(I114
I50
tp6031
a(I116
I50
tp6032
as(I61
I50
tp6033
(lp6034
(I60
I50
tp6035
a(I62
I50
tp6036
as(I26
I84
tp6037
(lp6038
(I26
I85
tp6039
a(I26
I83
tp6040
as(I118
I13
tp6041
(lp6042
(I118
I14
tp6043
a(I118
I12
tp6044
as(I66
I63
tp6045
(lp6046
(I66
I64
tp6047
a(I66
I62
tp6048
as(I158
I2
tp6049
(lp6050
(I157
I2
tp6051
a(I158
I3
tp6052
as(I35
I158
tp6053
(lp6054
(I34
I158
tp6055
a(I36
I158
tp6056
as(I58
I158
tp6057
(lp6058
(I57
I158
tp6059
a(I59
I158
tp6060
as(I24
I98
tp6061
(lp6062
(I23
I98
tp6063
a(I25
I98
tp6064
as(I134
I27
tp6065
(lp6066
(I134
I28
tp6067
a(I134
I26
tp6068
as(I62
I158
tp6069
(lp6070
(I61
I158
tp6071
a(I63
I158
tp6072
as(I142
I26
tp6073
(lp6074
(I141
I26
tp6075
a(I143
I26
tp6076
as(I74
I129
tp6077
(lp6078
(I74
I130
tp6079
a(I74
I128
tp6080
as(I78
I2
tp6081
(lp6082
(I77
I2
tp6083
a(I79
I2
tp6084
as(I26
I44
tp6085
(lp6086
(I26
I45
tp6087
a(I26
I43
tp6088
as(I74
I120
tp6089
(lp6090
(I74
I121
tp6091
a(I74
I119
tp6092
as(I26
I95
tp6093
(lp6094
(I26
I96
tp6095
a(I26
I94
tp6096
as(I118
I4
tp6097
(lp6098
(I118
I5
tp6099
a(I118
I3
tp6100
as(I66
I54
tp6101
(lp6102
(I66
I55
tp6103
a(I66
I53
tp6104
as(I158
I5
tp6105
(lp6106
(I158
I6
tp6107
a(I158
I4
tp6108
as(I138
I122
tp6109
(lp6110
(I137
I122
tp6111
a(I139
I122
tp6112
as(I134
I18
tp6113
(lp6114
(I134
I19
tp6115
a(I134
I17
tp6116
as(I158
I148
tp6117
(lp6118
(I158
I149
tp6119
a(I158
I147
tp6120
as(I110
I81
tp6121
(lp6122
(I110
I82
tp6123
a(I110
I80
tp6124
as(I74
I136
tp6125
(lp6126
(I74
I137
tp6127
a(I74
I135
tp6128
as(I150
I109
tp6129
(lp6130
(I150
I110
tp6131
a(I150
I108
tp6132
as(I26
I55
tp6133
(lp6134
(I26
I56
tp6135
a(I26
I54
tp6136
as(I46
I50
tp6137
(lp6138
(I45
I50
tp6139
a(I47
I50
tp6140
as(I54
I50
tp6141
(lp6142
(I53
I50
tp6143
a(I55
I50
tp6144
as(I134
I122
tp6145
(lp6146
(I135
I122
tp6147
a(I134
I123
tp6148
a(I134
I121
tp6149
as(I66
I49
tp6150
(lp6151
(I66
I50
tp6152
a(I66
I48
tp6153
as(I158
I12
tp6154
(lp6155
(I158
I13
tp6156
a(I158
I11
tp6157
as(I76
I122
tp6158
(lp6159
(I75
I122
tp6160
a(I77
I122
tp6161
as(I42
I38
tp6162
(lp6163
(I42
I39
tp6164
a(I42
I37
tp6165
as(I134
I21
tp6166
(lp6167
(I134
I22
tp6168
a(I134
I20
tp6169
as(I67
I50
tp6170
(lp6171
(I66
I50
tp6172
a(I68
I50
tp6173
as(I30
I74
tp6174
(lp6175
(I29
I74
tp6176
a(I31
I74
tp6177
as(I143
I158
tp6178
(lp6179
(I142
I158
tp6180
a(I144
I158
tp6181
as(I150
I100
tp6182
(lp6183
(I150
I101
tp6184
a(I150
I99
tp6185
as(I26
I62
tp6186
(lp6187
(I26
I63
tp6188
a(I26
I61
tp6189
as(I68
I98
tp6190
(lp6191
(I67
I98
tp6192
a(I69
I98
tp6193
as(I134
I125
tp6194
(lp6195
(I134
I126
tp6196
a(I134
I124
tp6197
as(I118
I22
tp6198
(lp6199
(I118
I23
tp6200
a(I118
I21
tp6201
as(I42
I33
tp6202
(lp6203
(I42
I34
tp6204
a(I42
I32
tp6205
as(I81
I122
tp6206
(lp6207
(I80
I122
tp6208
a(I82
I122
tp6209
as(I134
I12
tp6210
(lp6211
(I134
I13
tp6212
a(I134
I11
tp6213
as(I106
I2
tp6214
(lp6215
(I105
I2
tp6216
a(I107
I2
tp6217
as(I35
I2
tp6218
(lp6219
(I34
I2
tp6220
a(I36
I2
tp6221
as(I132
I50
tp6222
(lp6223
(I131
I50
tp6224
a(I133
I50
tp6225
as(I57
I98
tp6226
(lp6227
(I56
I98
tp6228
a(I58
I98
tp6229
as(I26
I57
tp6230
(lp6231
(I26
I58
tp6232
a(I26
I56
tp6233
as(I134
I152
tp6234
(lp6235
(I134
I153
tp6236
a(I134
I151
tp6237
as(I137
I26
tp6238
(lp6239
(I136
I26
tp6240
a(I138
I26
tp6241
as(I124
I158
tp6242
(lp6243
(I123
I158
tp6244
a(I125
I158
tp6245
as(I90
I26
tp6246
(lp6247
(I89
I26
tp6248
a(I91
I26
tp6249
as(I73
I98
tp6250
(lp6251
(I72
I98
tp6252
a(I74
I98
tp6253
as(I19
I26
tp6254
(lp6255
(I18
I26
tp6256
a(I20
I26
tp6257
as(I134
I116
tp6258
(lp6259
(I134
I117
tp6260
a(I134
I115
tp6261
as(I118
I105
tp6262
(lp6263
(I118
I106
tp6264
a(I118
I104
tp6265
as(I158
I126
tp6266
(lp6267
(I158
I127
tp6268
a(I158
I125
tp6269
as(I18
I158
tp6270
(lp6271
(I19
I158
tp6272
a(I18
I157
tp6273
as(I42
I40
tp6274
(lp6275
(I42
I41
tp6276
a(I42
I39
tp6277
as(I134
I7
tp6278
(lp6279
(I134
I8
tp6280
a(I134
I6
tp6281
as(I120
I50
tp6282
(lp6283
(I119
I50
tp6284
a(I121
I50
tp6285
as(I49
I74
tp6286
(lp6287
(I48
I74
tp6288
a(I50
I74
tp6289
as(I158
I137
tp6290
(lp6291
(I158
I138
tp6292
a(I158
I136
tp6293
as(I110
I134
tp6294
(lp6295
(I109
I134
tp6296
a(I111
I134
tp6297
as(I134
I150
tp6298
(lp6299
(I134
I151
tp6300
a(I134
I149
tp6301
as(I45
I158
tp6302
(lp6303
(I44
I158
tp6304
a(I46
I158
tp6305
as(I28
I122
tp6306
(lp6307
(I27
I122
tp6308
a(I29
I122
tp6309
as(I150
I118
tp6310
(lp6311
(I150
I119
tp6312
a(I150
I117
tp6313
as(I103
I50
tp6314
(lp6315
(I102
I50
tp6316
a(I104
I50
tp6317
as(I77
I158
tp6318
(lp6319
(I76
I158
tp6320
a(I78
I158
tp6321
as(I134
I111
tp6322
(lp6323
(I134
I112
tp6324
a(I134
I110
tp6325
as(I100
I158
tp6326
(lp6327
(I99
I158
tp6328
a(I101
I158
tp6329
as(I66
I26
tp6330
(lp6331
(I65
I26
tp6332
a(I67
I26
tp6333
a(I66
I27
tp6334
as(I18
I153
tp6335
(lp6336
(I18
I154
tp6337
a(I18
I152
tp6338
as(I20
I2
tp6339
(lp6340
(I19
I2
tp6341
a(I21
I2
tp6342
as(I42
I19
tp6343
(lp6344
(I42
I20
tp6345
a(I42
I18
tp6346
as(I145
I26
tp6347
(lp6348
(I144
I26
tp6349
a(I146
I26
tp6350
as(I82
I122
tp6351
(lp6352
(I81
I122
tp6353
a(I83
I122
tp6354
as(I102
I121
tp6355
(lp6356
(I102
I122
tp6357
a(I102
I120
tp6358
as(I134
I137
tp6359
(lp6360
(I134
I138
tp6361
a(I134
I136
tp6362
as(I33
I122
tp6363
(lp6364
(I32
I122
tp6365
a(I34
I122
tp6366
as(I130
I74
tp6367
(lp6368
(I129
I74
tp6369
a(I131
I74
tp6370
as(I102
I114
tp6371
(lp6372
(I102
I115
tp6373
a(I102
I113
tp6374
as(I125
I26
tp6375
(lp6376
(I124
I26
tp6377
a(I126
I26
tp6378
as(I143
I26
tp6379
(lp6380
(I142
I26
tp6381
a(I144
I26
tp6382
as(I79
I2
tp6383
(lp6384
(I78
I2
tp6385
a(I80
I2
tp6386
as(I134
I102
tp6387
(lp6388
(I134
I103
tp6389
a(I134
I101
tp6390
as(I118
I123
tp6391
(lp6392
(I118
I124
tp6393
a(I118
I122
tp6394
as(I34
I74
tp6395
(lp6396
(I33
I74
tp6397
a(I35
I74
tp6398
as(I18
I144
tp6399
(lp6400
(I18
I145
tp6401
a(I18
I143
tp6402
as(I26
I64
tp6403
(lp6404
(I26
I65
tp6405
a(I26
I63
tp6406
as(I101
I98
tp6407
(lp6408
(I100
I98
tp6409
a(I102
I98
tp6410
as(I102
I112
tp6411
(lp6412
(I102
I113
tp6413
a(I102
I111
tp6414
as(I50
I74
tp6415
(lp6416
(I49
I74
tp6417
a(I51
I74
tp6418
as(I134
I128
tp6419
(lp6420
(I134
I129
tp6421
a(I134
I127
tp6422
as(I144
I26
tp6423
(lp6424
(I143
I26
tp6425
a(I145
I26
tp6426
as(I58
I109
tp6427
(lp6428
(I58
I110
tp6429
a(I58
I108
tp6430
as(I80
I50
tp6431
(lp6432
(I79
I50
tp6433
a(I81
I50
tp6434
as(I42
I114
tp6435
(lp6436
(I42
I115
tp6437
a(I42
I113
tp6438
as(I118
I114
tp6439
(lp6440
(I118
I115
tp6441
a(I118
I113
tp6442
as(I101
I26
tp6443
(lp6444
(I100
I26
tp6445
a(I102
I26
tp6446
as(I102
I152
tp6447
(lp6448
(I102
I153
tp6449
a(I102
I151
tp6450
as(I47
I50
tp6451
(lp6452
(I46
I50
tp6453
a(I48
I50
tp6454
as(I18
I139
tp6455
(lp6456
(I18
I140
tp6457
a(I18
I138
tp6458
as(I19
I158
tp6459
(lp6460
(I18
I158
tp6461
a(I20
I158
tp6462
as(I42
I5
tp6463
(lp6464
(I42
I6
tp6465
a(I42
I4
tp6466
as(I134
I74
tp6467
(lp6468
(I133
I74
tp6469
a(I135
I74
tp6470
as(I60
I50
tp6471
(lp6472
(I59
I50
tp6473
a(I61
I50
tp6474
as(I102
I107
tp6475
(lp6476
(I102
I108
tp6477
a(I102
I106
tp6478
as(I74
I140
tp6479
(lp6480
(I74
I141
tp6481
a(I74
I139
tp6482
as(I42
I148
tp6483
(lp6484
(I42
I149
tp6485
a(I42
I147
tp6486
as(I51
I158
tp6487
(lp6488
(I50
I158
tp6489
a(I52
I158
tp6490
as(I58
I116
tp6491
(lp6492
(I58
I117
tp6493
a(I58
I115
tp6494
as(I150
I27
tp6495
(lp6496
(I150
I28
tp6497
a(I150
I26
tp6498
as(I26
I29
tp6499
(lp6500
(I26
I30
tp6501
a(I26
I28
tp6502
as(I47
I74
tp6503
(lp6504
(I46
I74
tp6505
a(I48
I74
tp6506
as(I102
I138
tp6507
(lp6508
(I102
I139
tp6509
a(I102
I137
tp6510
as(I42
I125
tp6511
(lp6512
(I42
I126
tp6513
a(I42
I124
tp6514
as(I102
I149
tp6515
(lp6516
(I102
I150
tp6517
a(I102
I148
tp6518
as(I118
I117
tp6519
(lp6520
(I118
I118
tp6521
a(I118
I116
tp6522
as(I102
I147
tp6523
(lp6524
(I102
I148
tp6525
a(I102
I146
tp6526
as(I86
I98
tp6527
(lp6528
(I85
I98
tp6529
a(I87
I98
tp6530
as(I141
I2
tp6531
(lp6532
(I140
I2
tp6533
a(I142
I2
tp6534
as(I63
I98
tp6535
(lp6536
(I62
I98
tp6537
a(I64
I98
tp6538
as(I18
I130
tp6539
(lp6540
(I18
I131
tp6541
a(I18
I129
tp6542
as(I77
I26
tp6543
(lp6544
(I76
I26
tp6545
a(I78
I26
tp6546
as(I42
I12
tp6547
(lp6548
(I42
I13
tp6549
a(I42
I11
tp6550
as(I102
I98
tp6551
(lp6552
(I101
I98
tp6553
a(I103
I98
tp6554
a(I102
I99
tp6555
as(I18
I21
tp6556
(lp6557
(I18
I22
tp6558
a(I18
I20
tp6559
as(I74
I118
tp6560
(lp6561
(I74
I119
tp6562
a(I74
I117
tp6563
as(I124
I74
tp6564
(lp6565
(I123
I74
tp6566
a(I125
I74
tp6567
as(I107
I2
tp6568
(lp6569
(I106
I2
tp6570
a(I108
I2
tp6571
as(I145
I158
tp6572
(lp6573
(I144
I158
tp6574
a(I146
I158
tp6575
as(I58
I127
tp6576
(lp6577
(I58
I128
tp6578
a(I58
I126
tp6579
as(I78
I122
tp6580
(lp6581
(I77
I122
tp6582
a(I79
I122
tp6583
as(I61
I2
tp6584
(lp6585
(I60
I2
tp6586
a(I62
I2
tp6587
as(I26
I100
tp6588
(lp6589
(I26
I101
tp6590
a(I26
I99
tp6591
as(I27
I158
tp6592
(lp6593
(I26
I158
tp6594
a(I28
I158
tp6595
as(I158
I50
tp6596
(lp6597
(I157
I50
tp6598
as(I42
I100
tp6599
(lp6600
(I42
I101
tp6601
a(I42
I99
tp6602
as(I18
I50
tp6603
(lp6604
(I19
I50
tp6605
as(I102
I101
tp6606
(lp6607
(I102
I102
tp6608
a(I102
I100
tp6609
as(I18
I12
tp6610
(lp6611
(I18
I13
tp6612
a(I18
I11
tp6613
as(I74
I113
tp6614
(lp6615
(I74
I114
tp6616
a(I74
I112
tp6617
as(I42
I134
tp6618
(lp6619
(I42
I135
tp6620
a(I42
I133
tp6621
as(I74
I146
tp6622
(lp6623
(I74
I147
tp6624
a(I74
I145
tp6625
as(I139
I122
tp6626
(lp6627
(I138
I122
tp6628
a(I140
I122
tp6629
as(I58
I6
tp6630
(lp6631
(I58
I7
tp6632
a(I58
I5
tp6633
as(I26
I111
tp6634
(lp6635
(I26
I112
tp6636
a(I26
I110
tp6637
as(I108
I26
tp6638
(lp6639
(I107
I26
tp6640
a(I109
I26
tp6641
as(I42
I111
tp6642
(lp6643
(I42
I112
tp6644
a(I42
I110
tp6645
as(I102
I141
tp6646
(lp6647
(I102
I142
tp6648
a(I102
I140
tp6649
as(I152
I158
tp6650
(lp6651
(I151
I158
tp6652
a(I153
I158
tp6653
as(I74
I157
tp6654
(lp6655
(I74
I158
tp6656
a(I74
I156
tp6657
as(I113
I50
tp6658
(lp6659
(I112
I50
tp6660
a(I114
I50
tp6661
as(I131
I98
tp6662
(lp6663
(I130
I98
tp6664
a(I132
I98
tp6665
as(I18
I7
tp6666
(lp6667
(I18
I8
tp6668
a(I18
I6
tp6669
as(I92
I2
tp6670
(lp6671
(I91
I2
tp6672
a(I93
I2
tp6673
as(I75
I122
tp6674
(lp6675
(I74
I122
tp6676
a(I76
I122
tp6677
as(I42
I129
tp6678
(lp6679
(I42
I130
tp6680
a(I42
I128
tp6681
as(I110
I31
tp6682
(lp6683
(I110
I32
tp6684
a(I110
I30
tp6685
as(I114
I98
tp6686
(lp6687
(I113
I98
tp6688
a(I115
I98
tp6689
as(I150
I44
tp6690
(lp6691
(I150
I45
tp6692
a(I150
I43
tp6693
as(I26
I118
tp6694
(lp6695
(I26
I119
tp6696
a(I26
I117
tp6697
as(I91
I26
tp6698
(lp6699
(I90
I26
tp6700
a(I92
I26
tp6701
as(I51
I98
tp6702
(lp6703
(I50
I98
tp6704
a(I52
I98
tp6705
as(I102
I132
tp6706
(lp6707
(I102
I133
tp6708
a(I102
I131
tp6709
as(I67
I98
tp6710
(lp6711
(I66
I98
tp6712
a(I68
I98
tp6713
as(I30
I122
tp6714
(lp6715
(I29
I122
tp6716
a(I31
I122
tp6717
as(I153
I26
tp6718
(lp6719
(I152
I26
tp6720
a(I154
I26
tp6721
as(I89
I2
tp6722
(lp6723
(I88
I2
tp6724
a(I90
I2
tp6725
as(I18
I126
tp6726
(lp6727
(I18
I127
tp6728
a(I18
I125
tp6729
as(I74
I99
tp6730
(lp6731
(I74
I100
tp6732
a(I74
I98
tp6733
as(I42
I136
tp6734
(lp6735
(I42
I137
tp6736
a(I42
I135
tp6737
as(I140
I122
tp6738
(lp6739
(I139
I122
tp6740
a(I141
I122
tp6741
as(I34
I158
tp6742
(lp6743
(I33
I158
tp6744
a(I35
I158
tp6745
as(I110
I38
tp6746
(lp6747
(I110
I39
tp6748
a(I110
I37
tp6749
as(I58
I8
tp6750
(lp6751
(I58
I9
tp6752
a(I58
I7
tp6753
as(I150
I39
tp6754
(lp6755
(I150
I40
tp6756
a(I150
I38
tp6757
as(I26
I113
tp6758
(lp6759
(I26
I114
tp6760
a(I26
I112
tp6761
as(I61
I158
tp6762
(lp6763
(I60
I158
tp6764
a(I62
I158
tp6765
as(I66
I75
tp6766
(lp6767
(I66
I76
tp6768
a(I66
I74
tp6769
as(I110
I94
tp6770
(lp6771
(I110
I95
tp6772
a(I110
I93
tp6773
as(I106
I50
tp6774
(lp6775
(I105
I50
tp6776
a(I107
I50
tp6777
as(I132
I98
tp6778
(lp6779
(I131
I98
tp6780
a(I133
I98
tp6781
as.